---
triple:          'arm64-apple-darwin'
binary-path:     '/Users/haritshah/Desktop/Assignment296/app'
relocations:
  - { offsetInCU: 0x3F, offset: 0x3F, size: 0x8, addend: 0x0, symName: _cameraPos, symObjAddr: 0x9CF94, symBinAddr: 0x100020048, symSize: 0x0 }
  - { offsetInCU: 0x1B25, offset: 0x1B25, size: 0x8, addend: 0x0, symName: __ZN3glm6detail15component_countINS_5tvec4IfLNS_9precisionE0EEEEEiRKT_, symObjAddr: 0x11180, symBinAddr: 0x10001207C, symSize: 0x24 }
  - { offsetInCU: 0x1BE3, offset: 0x1BE3, size: 0x8, addend: 0x0, symName: __ZN3glm7radiansIfEET_S1_, symObjAddr: 0x1D3C, symBinAddr: 0x100002C38, symSize: 0x24 }
  - { offsetInCU: 0x1C18, offset: 0x1C18, size: 0x8, addend: 0x0, symName: __ZN3glm9normalizeIfLNS_9precisionE0ENS_5tvec3EEET1_IT_XT0_EERKS5_, symObjAddr: 0x1D84, symBinAddr: 0x100002C80, symSize: 0x50 }
  - { offsetInCU: 0x1C60, offset: 0x1C60, size: 0x8, addend: 0x0, symName: __ZN3glmmlIfLNS_9precisionE0EEENS_5tvec3IT_XT0_EEERKS4_RKS3_, symObjAddr: 0x1E80, symBinAddr: 0x100002D7C, symSize: 0x8C }
  - { offsetInCU: 0x1CB0, offset: 0x1CB0, size: 0x8, addend: 0x0, symName: __ZN3glmmlIfLNS_9precisionE0EEENS_5tvec3IT_XT0_EEERKS3_RKS4_, symObjAddr: 0x1F0C, symBinAddr: 0x100002E08, symSize: 0x8C }
  - { offsetInCU: 0x1D00, offset: 0x1D00, size: 0x8, addend: 0x0, symName: __ZN3glm9value_ptrIfLNS_9precisionE0EEEPT_RNS_5tvec3IS2_XT0_EEE, symObjAddr: 0x40B4, symBinAddr: 0x100004FB0, symSize: 0x14 }
  - { offsetInCU: 0x1D3F, offset: 0x1D3F, size: 0x8, addend: 0x0, symName: __ZN3glm5crossIfLNS_9precisionE0EEENS_5tvec3IT_XT0_EEERKS4_S6_, symObjAddr: 0x41AC, symBinAddr: 0x1000050A8, symSize: 0xC8 }
  - { offsetInCU: 0x1D8C, offset: 0x1D8C, size: 0x8, addend: 0x0, symName: __ZN3glm6lookAtIfLNS_9precisionE0EEENS_7tmat4x4IT_XT0_EEERKNS_5tvec3IS3_XT0_EEES8_S8_, symObjAddr: 0x42B8, symBinAddr: 0x1000051B4, symSize: 0x41C }
  - { offsetInCU: 0x1E2A, offset: 0x1E2A, size: 0x8, addend: 0x0, symName: __ZN3glmplIfLNS_9precisionE0EEENS_5tvec3IT_XT0_EEERKS4_S6_, symObjAddr: 0x46D4, symBinAddr: 0x1000055D0, symSize: 0x8C }
  - { offsetInCU: 0x1E7A, offset: 0x1E7A, size: 0x8, addend: 0x0, symName: __ZN3glm11perspectiveIfEENS_7tmat4x4IT_LNS_9precisionE0EEES2_S2_S2_S2_, symObjAddr: 0x4760, symBinAddr: 0x10000565C, symSize: 0x27C }
  - { offsetInCU: 0x1EF6, offset: 0x1EF6, size: 0x8, addend: 0x0, symName: __ZN3glm9value_ptrIfLNS_9precisionE0EEEPT_RNS_7tmat4x4IS2_XT0_EEE, symObjAddr: 0x49DC, symBinAddr: 0x1000058D8, symSize: 0x28 }
  - { offsetInCU: 0x1F35, offset: 0x1F35, size: 0x8, addend: 0x0, symName: __ZN3glm11inversesqrtIfEET_S1_, symObjAddr: 0xAFE4, symBinAddr: 0x10000BEE0, symSize: 0x30 }
  - { offsetInCU: 0x1F6A, offset: 0x1F6A, size: 0x8, addend: 0x0, symName: __ZN3glm3dotIfLNS_9precisionE0ENS_5tvec3EEET_RKT1_IS3_XT0_EES7_, symObjAddr: 0xB014, symBinAddr: 0x10000BF10, symSize: 0x2C }
  - { offsetInCU: 0x1FC0, offset: 0x1FC0, size: 0x8, addend: 0x0, symName: __ZN3glmmlIfLNS_9precisionE0EEENS_5tvec3IT_XT0_EEERKS4_S6_, symObjAddr: 0xB084, symBinAddr: 0x10000BF80, symSize: 0x8C }
  - { offsetInCU: 0x2010, offset: 0x2010, size: 0x8, addend: 0x0, symName: __ZN3glmmiIfLNS_9precisionE0EEENS_5tvec3IT_XT0_EEERKS4_S6_, symObjAddr: 0x10FC4, symBinAddr: 0x100011EC0, symSize: 0x8C }
  - { offsetInCU: 0x2060, offset: 0x2060, size: 0x8, addend: 0x0, symName: __ZN3glm3absIfEET_S1_, symObjAddr: 0x111B8, symBinAddr: 0x1000120B4, symSize: 0x24 }
  - { offsetInCU: 0x20EA, offset: 0x20EA, size: 0x8, addend: 0x0, symName: _cameraFront, symObjAddr: 0x9CFA0, symBinAddr: 0x100020054, symSize: 0x0 }
  - { offsetInCU: 0x20FF, offset: 0x20FF, size: 0x8, addend: 0x0, symName: _cameraUp, symObjAddr: 0x9CFAC, symBinAddr: 0x100020060, symSize: 0x0 }
  - { offsetInCU: 0x2114, offset: 0x2114, size: 0x8, addend: 0x0, symName: _cameraSpeed, symObjAddr: 0x11FE8, symBinAddr: 0x100020000, symSize: 0x0 }
  - { offsetInCU: 0x2129, offset: 0x2129, size: 0x8, addend: 0x0, symName: _yaw, symObjAddr: 0x11FEC, symBinAddr: 0x100020004, symSize: 0x0 }
  - { offsetInCU: 0x213E, offset: 0x213E, size: 0x8, addend: 0x0, symName: _pitch, symObjAddr: 0x9CFB8, symBinAddr: 0x10002006C, symSize: 0x0 }
  - { offsetInCU: 0x2153, offset: 0x2153, size: 0x8, addend: 0x0, symName: _lastX, symObjAddr: 0x11FF0, symBinAddr: 0x100020008, symSize: 0x0 }
  - { offsetInCU: 0x2168, offset: 0x2168, size: 0x8, addend: 0x0, symName: _lastY, symObjAddr: 0x11FF4, symBinAddr: 0x10002000C, symSize: 0x0 }
  - { offsetInCU: 0x217D, offset: 0x217D, size: 0x8, addend: 0x0, symName: _firstMouse, symObjAddr: 0x11FF8, symBinAddr: 0x100020010, symSize: 0x0 }
  - { offsetInCU: 0x2199, offset: 0x2199, size: 0x8, addend: 0x0, symName: _meshColor, symObjAddr: 0x9CFBC, symBinAddr: 0x100020070, symSize: 0x0 }
  - { offsetInCU: 0x21C1, offset: 0x21C1, size: 0x8, addend: 0x0, symName: _vertexShaderSource, symObjAddr: 0x12000, symBinAddr: 0x100020018, symSize: 0x0 }
  - { offsetInCU: 0x21DB, offset: 0x21DB, size: 0x8, addend: 0x0, symName: _fragmentShaderSource, symObjAddr: 0x12008, symBinAddr: 0x100020020, symSize: 0x0 }
  - { offsetInCU: 0x21E4, offset: 0x21E4, size: 0x8, addend: 0x0, symName: _main, symObjAddr: 0x1FEC, symBinAddr: 0x100002EE8, symSize: 0x1CAC }
  - { offsetInCU: 0x220B, offset: 0x220B, size: 0x8, addend: 0x0, symName: __ZZ4mainE9lastFrame, symObjAddr: 0x9CFC8, symBinAddr: 0x1000212B8, symSize: 0x0 }
  - { offsetInCU: 0xC88E, offset: 0xC88E, size: 0x8, addend: 0x0, symName: __ZNSt3__124__put_character_sequenceB8ue170006IcNS_11char_traitsIcEEEERNS_13basic_ostreamIT_T0_EES7_PKS4_m, symObjAddr: 0x5450, symBinAddr: 0x10000634C, symSize: 0x1EC }
  - { offsetInCU: 0x10D92, offset: 0x10D92, size: 0x8, addend: 0x0, symName: __ZNSt3__17advanceB8ue170006IP6VertexllvEEvRT_T0_, symObjAddr: 0xAE08, symBinAddr: 0x10000BD04, symSize: 0x38 }
  - { offsetInCU: 0x183C9, offset: 0x183C9, size: 0x8, addend: 0x0, symName: __ZNSt3__1lsB8ue170006IcNS_11char_traitsIcEENS_9allocatorIcEEEERNS_13basic_ostreamIT_T0_EES9_RKNS_12basic_stringIS6_S7_T1_EE, symObjAddr: 0x530, symBinAddr: 0x10000142C, symSize: 0x4C }
  - { offsetInCU: 0x18421, offset: 0x18421, size: 0x8, addend: 0x0, symName: __ZNSt3__1lsB8ue170006INS_11char_traitsIcEEEERNS_13basic_ostreamIcT_EES6_PKc, symObjAddr: 0x57C, symBinAddr: 0x100001478, symSize: 0x48 }
  - { offsetInCU: 0x18467, offset: 0x18467, size: 0x8, addend: 0x0, symName: __ZNSt3__14endlB8ue170006IcNS_11char_traitsIcEEEERNS_13basic_ostreamIT_T0_EES7_, symObjAddr: 0x5F0, symBinAddr: 0x1000014EC, symSize: 0x58 }
  - { offsetInCU: 0x184A7, offset: 0x184A7, size: 0x8, addend: 0x0, symName: __ZNSt3__17getlineB8ue170006IcNS_11char_traitsIcEENS_9allocatorIcEEEERNS_13basic_istreamIT_T0_EES9_RNS_12basic_stringIS6_S7_T1_EE, symObjAddr: 0x674, symBinAddr: 0x100001570, symSize: 0x5C }
  - { offsetInCU: 0x1887B, offset: 0x1887B, size: 0x8, addend: 0x0, symName: __ZNSt3__1rsB8ue170006IcNS_11char_traitsIcEENS_9allocatorIcEEEERNS_13basic_istreamIT_T0_EES9_RNS_12basic_stringIS6_S7_T1_EE, symObjAddr: 0x7F8, symBinAddr: 0x1000016F4, symSize: 0x308 }
  - { offsetInCU: 0x18948, offset: 0x18948, size: 0x8, addend: 0x0, symName: __ZNSt3__1eqB8ue170006IcNS_11char_traitsIcEENS_9allocatorIcEEEEbRKNS_12basic_stringIT_T0_T1_EEPKS6_, symObjAddr: 0xB00, symBinAddr: 0x1000019FC, symSize: 0xAC }
  - { offsetInCU: 0x18C59, offset: 0x18C59, size: 0x8, addend: 0x0, symName: __ZNSt3__1neB8ue170006IPK4FaceEEbRKNS_11__wrap_iterIT_EES8_, symObjAddr: 0x174C, symBinAddr: 0x100002648, symSize: 0x34 }
  - { offsetInCU: 0x18C9C, offset: 0x18C9C, size: 0x8, addend: 0x0, symName: __ZNSt3__1neB8ue170006IP4FaceEEbRKNS_11__wrap_iterIT_EES7_, symObjAddr: 0x3DD8, symBinAddr: 0x100004CD4, symSize: 0x34 }
  - { offsetInCU: 0x18CDF, offset: 0x18CDF, size: 0x8, addend: 0x0, symName: __ZNSt3__1eqB8ue170006IPK4FaceEEbRKNS_11__wrap_iterIT_EES8_, symObjAddr: 0x4CCC, symBinAddr: 0x100005BC8, symSize: 0x48 }
  - { offsetInCU: 0x18D22, offset: 0x18D22, size: 0x8, addend: 0x0, symName: __ZNSt3__1eqB8ue170006IP4FaceEEbRKNS_11__wrap_iterIT_EES7_, symObjAddr: 0x4D2C, symBinAddr: 0x100005C28, symSize: 0x48 }
  - { offsetInCU: 0x18D65, offset: 0x18D65, size: 0x8, addend: 0x0, symName: __ZNSt3__118__constexpr_strlenB8ue170006EPKc, symObjAddr: 0x5080, symBinAddr: 0x100005F7C, symSize: 0x24 }
  - { offsetInCU: 0x18D91, offset: 0x18D91, size: 0x8, addend: 0x0, symName: __ZNSt3__112__to_addressB8ue170006IKcEEPT_S3_, symObjAddr: 0x52BC, symBinAddr: 0x1000061B8, symSize: 0x14 }
  - { offsetInCU: 0x18DF9, offset: 0x18DF9, size: 0x8, addend: 0x0, symName: __ZNSt3__116__pad_and_outputB8ue170006IcNS_11char_traitsIcEEEENS_19ostreambuf_iteratorIT_T0_EES6_PKS4_S8_S8_RNS_8ios_baseES4_, symObjAddr: 0x5658, symBinAddr: 0x100006554, symSize: 0x240 }
  - { offsetInCU: 0x18EC8, offset: 0x18EC8, size: 0x8, addend: 0x0, symName: __ZNSt3__112__to_addressB8ue170006IcEEPT_S2_, symObjAddr: 0x5A9C, symBinAddr: 0x100006998, symSize: 0x14 }
  - { offsetInCU: 0x18F30, offset: 0x18F30, size: 0x8, addend: 0x0, symName: __ZNSt3__19use_facetB8ue170006INS_5ctypeIcEEEERKT_RKNS_6localeE, symObjAddr: 0x5CA4, symBinAddr: 0x100006BA0, symSize: 0x2C }
  - { offsetInCU: 0x1930E, offset: 0x1930E, size: 0x8, addend: 0x0, symName: __ZNSt3__17getlineB8ue170006IcNS_11char_traitsIcEENS_9allocatorIcEEEERNS_13basic_istreamIT_T0_EES9_RNS_12basic_stringIS6_S7_T1_EES6_, symObjAddr: 0x5DB8, symBinAddr: 0x100006CB4, symSize: 0x238 }
  - { offsetInCU: 0x197A2, offset: 0x197A2, size: 0x8, addend: 0x0, symName: __ZNSt3__112__to_addressB8ue170006I6VertexEEPT_S3_, symObjAddr: 0x6A20, symBinAddr: 0x10000791C, symSize: 0x14 }
  - { offsetInCU: 0x197D7, offset: 0x197D7, size: 0x8, addend: 0x0, symName: __ZNSt3__13maxB8ue170006ImEERKT_S3_S3_, symObjAddr: 0x6E24, symBinAddr: 0x100007D20, symSize: 0x2C }
  - { offsetInCU: 0x1981A, offset: 0x1981A, size: 0x8, addend: 0x0, symName: __ZNSt3__13minB8ue170006ImEERKT_S3_S3_, symObjAddr: 0x6E50, symBinAddr: 0x100007D4C, symSize: 0x2C }
  - { offsetInCU: 0x1985D, offset: 0x1985D, size: 0x8, addend: 0x0, symName: __ZNSt3__13minB8ue170006ImNS_6__lessIvvEEEERKT_S5_S5_T0_, symObjAddr: 0x6EC8, symBinAddr: 0x100007DC4, symSize: 0x54 }
  - { offsetInCU: 0x198FC, offset: 0x198FC, size: 0x8, addend: 0x0, symName: __ZNSt3__120__throw_length_errorB8ue170006EPKc, symObjAddr: 0x6FA0, symBinAddr: 0x100007E9C, symSize: 0x64 }
  - { offsetInCU: 0x19926, offset: 0x19926, size: 0x8, addend: 0x0, symName: __ZNSt3__13maxB8ue170006ImNS_6__lessIvvEEEERKT_S5_S5_T0_, symObjAddr: 0x70E4, symBinAddr: 0x100007FE0, symSize: 0x54 }
  - { offsetInCU: 0x19980, offset: 0x19980, size: 0x8, addend: 0x0, symName: __ZNSt3__119__allocate_at_leastB8ue170006INS_9allocatorI6VertexEEEENS_19__allocation_resultINS_16allocator_traitsIT_E7pointerEEERS6_m, symObjAddr: 0x7254, symBinAddr: 0x100008150, symSize: 0x40 }
  - { offsetInCU: 0x199C3, offset: 0x199C3, size: 0x8, addend: 0x0, symName: __ZNSt3__117__libcpp_allocateB8ue170006Emm, symObjAddr: 0x73F8, symBinAddr: 0x1000082F4, symSize: 0x60 }
  - { offsetInCU: 0x19A1D, offset: 0x19A1D, size: 0x8, addend: 0x0, symName: __ZNSt3__124__is_overaligned_for_newB8ue170006Em, symObjAddr: 0x7458, symBinAddr: 0x100008354, symSize: 0x20 }
  - { offsetInCU: 0x19A4B, offset: 0x19A4B, size: 0x8, addend: 0x0, symName: __ZNSt3__121__libcpp_operator_newB8ue170006IJmSt11align_val_tEEEPvDpT_, symObjAddr: 0x7478, symBinAddr: 0x100008374, symSize: 0x2C }
  - { offsetInCU: 0x19A98, offset: 0x19A98, size: 0x8, addend: 0x0, symName: __ZNSt3__121__libcpp_operator_newB8ue170006IJmEEEPvDpT_, symObjAddr: 0x74A4, symBinAddr: 0x1000083A0, symSize: 0x24 }
  - { offsetInCU: 0x19AD1, offset: 0x19AD1, size: 0x8, addend: 0x0, symName: __ZNSt3__142__uninitialized_allocator_move_if_noexceptB8ue170006INS_9allocatorI6VertexEENS_16reverse_iteratorIPS2_EES6_S2_vEET1_RT_T0_SA_S7_, symObjAddr: 0x7600, symBinAddr: 0x1000084FC, symSize: 0x78 }
  - { offsetInCU: 0x19B4E, offset: 0x19B4E, size: 0x8, addend: 0x0, symName: __ZNSt3__14swapB8ue170006IP6VertexEENS_9enable_ifIXaasr21is_move_constructibleIT_EE5valuesr18is_move_assignableIS4_EE5valueEvE4typeERS4_S7_, symObjAddr: 0x76C4, symBinAddr: 0x1000085C0, symSize: 0x3C }
  - { offsetInCU: 0x19B9F, offset: 0x19B9F, size: 0x8, addend: 0x0, symName: __ZNSt3__14moveB8ue170006INS_16reverse_iteratorIP6VertexEES4_EET0_T_S6_S5_, symObjAddr: 0x7810, symBinAddr: 0x10000870C, symSize: 0x78 }
  - { offsetInCU: 0x19BF9, offset: 0x19BF9, size: 0x8, addend: 0x0, symName: __ZNSt3__16__moveB8ue170006INS_17_ClassicAlgPolicyENS_16reverse_iteratorIP6VertexEES5_S5_EENS_4pairIT0_T2_EES7_T1_S8_, symObjAddr: 0x7888, symBinAddr: 0x100008784, symSize: 0x64 }
  - { offsetInCU: 0x19C65, offset: 0x19C65, size: 0x8, addend: 0x0, symName: __ZNSt3__123__dispatch_copy_or_moveB8ue170006INS_17_ClassicAlgPolicyENS_11__move_loopIS1_EENS_14__move_trivialENS_16reverse_iteratorIP6VertexEES8_S8_EENS_4pairIT2_T4_EESA_T3_SB_, symObjAddr: 0x78EC, symBinAddr: 0x1000087E8, symSize: 0x64 }
  - { offsetInCU: 0x19CE3, offset: 0x19CE3, size: 0x8, addend: 0x0, symName: __ZNSt3__121__unwrap_and_dispatchB8ue170006INS_10__overloadINS_11__move_loopINS_17_ClassicAlgPolicyEEENS_14__move_trivialEEENS_16reverse_iteratorIP6VertexEESA_SA_Li0EEENS_4pairIT0_T2_EESC_T1_SD_, symObjAddr: 0x7950, symBinAddr: 0x10000884C, symSize: 0x12C }
  - { offsetInCU: 0x19D73, offset: 0x19D73, size: 0x8, addend: 0x0, symName: __ZNSt3__114__unwrap_rangeB8ue170006INS_16reverse_iteratorIP6VertexEES4_EENS_4pairIT0_S6_EET_S8_, symObjAddr: 0x7A7C, symBinAddr: 0x100008978, symSize: 0x84 }
  - { offsetInCU: 0x19FAB, offset: 0x19FAB, size: 0x8, addend: 0x0, symName: __ZNSt3__113__unwrap_iterB8ue170006INS_16reverse_iteratorIP6VertexEENS_18__unwrap_iter_implIS4_Lb0EEELi0EEEDTclsrT0_8__unwrapclsr3stdE7declvalIT_EEEES8_, symObjAddr: 0x7BA8, symBinAddr: 0x100008AA4, symSize: 0x44 }
  - { offsetInCU: 0x19FEF, offset: 0x19FEF, size: 0x8, addend: 0x0, symName: __ZNSt3__19make_pairB8ue170006INS_16reverse_iteratorIP6VertexEES4_EENS_4pairINS_18__unwrap_ref_decayIT_E4typeENS6_IT0_E4typeEEEOS7_OSA_, symObjAddr: 0x7BEC, symBinAddr: 0x100008AE8, symSize: 0x38 }
  - { offsetInCU: 0x1A03E, offset: 0x1A03E, size: 0x8, addend: 0x0, symName: __ZNSt3__114__rewrap_rangeB8ue170006INS_16reverse_iteratorIP6VertexEES4_EET_S5_T0_, symObjAddr: 0x7C24, symBinAddr: 0x100008B20, symSize: 0x5C }
  - { offsetInCU: 0x1A08A, offset: 0x1A08A, size: 0x8, addend: 0x0, symName: __ZNSt3__113__rewrap_iterB8ue170006INS_16reverse_iteratorIP6VertexEES4_NS_18__unwrap_iter_implIS4_Lb0EEEEET_S7_T0_, symObjAddr: 0x7C80, symBinAddr: 0x100008B7C, symSize: 0x74 }
  - { offsetInCU: 0x1A0DF, offset: 0x1A0DF, size: 0x8, addend: 0x0, symName: __ZNSt3__1neB8ue170006IP6VertexS2_EEbRKNS_16reverse_iteratorIT_EERKNS3_IT0_EE, symObjAddr: 0x7CF4, symBinAddr: 0x100008BF0, symSize: 0x48 }
  - { offsetInCU: 0x1A277, offset: 0x1A277, size: 0x8, addend: 0x0, symName: __ZNSt3__119__libcpp_deallocateB8ue170006EPvmm, symObjAddr: 0x80F0, symBinAddr: 0x100008FEC, symSize: 0x60 }
  - { offsetInCU: 0x1A2DC, offset: 0x1A2DC, size: 0x8, addend: 0x0, symName: __ZNSt3__127__do_deallocate_handle_sizeB8ue170006IJSt11align_val_tEEEvPvmDpT_, symObjAddr: 0x8150, symBinAddr: 0x10000904C, symSize: 0x30 }
  - { offsetInCU: 0x1A32F, offset: 0x1A32F, size: 0x8, addend: 0x0, symName: __ZNSt3__127__do_deallocate_handle_sizeB8ue170006IJEEEvPvmDpT_, symObjAddr: 0x8180, symBinAddr: 0x10000907C, symSize: 0x28 }
  - { offsetInCU: 0x1A36D, offset: 0x1A36D, size: 0x8, addend: 0x0, symName: __ZNSt3__124__libcpp_operator_deleteB8ue170006IJPvSt11align_val_tEEEvDpT_, symObjAddr: 0x81A8, symBinAddr: 0x1000090A4, symSize: 0x2C }
  - { offsetInCU: 0x1A3B6, offset: 0x1A3B6, size: 0x8, addend: 0x0, symName: __ZNSt3__124__libcpp_operator_deleteB8ue170006IJPvEEEvDpT_, symObjAddr: 0x81D4, symBinAddr: 0x1000090D0, symSize: 0x24 }
  - { offsetInCU: 0x1A3EA, offset: 0x1A3EA, size: 0x8, addend: 0x0, symName: __ZNSt3__112__to_addressB8ue170006I4FaceEEPT_S3_, symObjAddr: 0x84A4, symBinAddr: 0x1000093A0, symSize: 0x14 }
  - { offsetInCU: 0x1A41F, offset: 0x1A41F, size: 0x8, addend: 0x0, symName: __ZNSt3__119__allocate_at_leastB8ue170006INS_9allocatorI4FaceEEEENS_19__allocation_resultINS_16allocator_traitsIT_E7pointerEEERS6_m, symObjAddr: 0x8AC0, symBinAddr: 0x1000099BC, symSize: 0x40 }
  - { offsetInCU: 0x1A462, offset: 0x1A462, size: 0x8, addend: 0x0, symName: __ZNSt3__142__uninitialized_allocator_move_if_noexceptB8ue170006INS_9allocatorI4FaceEENS_16reverse_iteratorIPS2_EES6_S2_vEET1_RT_T0_SA_S7_, symObjAddr: 0x8D68, symBinAddr: 0x100009C64, symSize: 0x78 }
  - { offsetInCU: 0x1A4DF, offset: 0x1A4DF, size: 0x8, addend: 0x0, symName: __ZNSt3__14swapB8ue170006IP4FaceEENS_9enable_ifIXaasr21is_move_constructibleIT_EE5valuesr18is_move_assignableIS4_EE5valueEvE4typeERS4_S7_, symObjAddr: 0x8E2C, symBinAddr: 0x100009D28, symSize: 0x3C }
  - { offsetInCU: 0x1A530, offset: 0x1A530, size: 0x8, addend: 0x0, symName: __ZNSt3__14moveB8ue170006INS_16reverse_iteratorIP4FaceEES4_EET0_T_S6_S5_, symObjAddr: 0x8F78, symBinAddr: 0x100009E74, symSize: 0x78 }
  - { offsetInCU: 0x1A58A, offset: 0x1A58A, size: 0x8, addend: 0x0, symName: __ZNSt3__16__moveB8ue170006INS_17_ClassicAlgPolicyENS_16reverse_iteratorIP4FaceEES5_S5_EENS_4pairIT0_T2_EES7_T1_S8_, symObjAddr: 0x8FF0, symBinAddr: 0x100009EEC, symSize: 0x64 }
  - { offsetInCU: 0x1A5F6, offset: 0x1A5F6, size: 0x8, addend: 0x0, symName: __ZNSt3__123__dispatch_copy_or_moveB8ue170006INS_17_ClassicAlgPolicyENS_11__move_loopIS1_EENS_14__move_trivialENS_16reverse_iteratorIP4FaceEES8_S8_EENS_4pairIT2_T4_EESA_T3_SB_, symObjAddr: 0x9054, symBinAddr: 0x100009F50, symSize: 0x64 }
  - { offsetInCU: 0x1A674, offset: 0x1A674, size: 0x8, addend: 0x0, symName: __ZNSt3__121__unwrap_and_dispatchB8ue170006INS_10__overloadINS_11__move_loopINS_17_ClassicAlgPolicyEEENS_14__move_trivialEEENS_16reverse_iteratorIP4FaceEESA_SA_Li0EEENS_4pairIT0_T2_EESC_T1_SD_, symObjAddr: 0x90B8, symBinAddr: 0x100009FB4, symSize: 0x12C }
  - { offsetInCU: 0x1A704, offset: 0x1A704, size: 0x8, addend: 0x0, symName: __ZNSt3__114__unwrap_rangeB8ue170006INS_16reverse_iteratorIP4FaceEES4_EENS_4pairIT0_S6_EET_S8_, symObjAddr: 0x91E4, symBinAddr: 0x10000A0E0, symSize: 0x84 }
  - { offsetInCU: 0x1A824, offset: 0x1A824, size: 0x8, addend: 0x0, symName: __ZNSt3__113__unwrap_iterB8ue170006INS_16reverse_iteratorIP4FaceEENS_18__unwrap_iter_implIS4_Lb0EEELi0EEEDTclsrT0_8__unwrapclsr3stdE7declvalIT_EEEES8_, symObjAddr: 0x9310, symBinAddr: 0x10000A20C, symSize: 0x44 }
  - { offsetInCU: 0x1A868, offset: 0x1A868, size: 0x8, addend: 0x0, symName: __ZNSt3__19make_pairB8ue170006INS_16reverse_iteratorIP4FaceEES4_EENS_4pairINS_18__unwrap_ref_decayIT_E4typeENS6_IT0_E4typeEEEOS7_OSA_, symObjAddr: 0x9354, symBinAddr: 0x10000A250, symSize: 0x38 }
  - { offsetInCU: 0x1A8B7, offset: 0x1A8B7, size: 0x8, addend: 0x0, symName: __ZNSt3__114__rewrap_rangeB8ue170006INS_16reverse_iteratorIP4FaceEES4_EET_S5_T0_, symObjAddr: 0x938C, symBinAddr: 0x10000A288, symSize: 0x5C }
  - { offsetInCU: 0x1A903, offset: 0x1A903, size: 0x8, addend: 0x0, symName: __ZNSt3__113__rewrap_iterB8ue170006INS_16reverse_iteratorIP4FaceEES4_NS_18__unwrap_iter_implIS4_Lb0EEEEET_S7_T0_, symObjAddr: 0x93E8, symBinAddr: 0x10000A2E4, symSize: 0x74 }
  - { offsetInCU: 0x1A958, offset: 0x1A958, size: 0x8, addend: 0x0, symName: __ZNSt3__1neB8ue170006IP4FaceS2_EEbRKNS_16reverse_iteratorIT_EERKNS3_IT0_EE, symObjAddr: 0x945C, symBinAddr: 0x10000A358, symSize: 0x48 }
  - { offsetInCU: 0x1AA34, offset: 0x1AA34, size: 0x8, addend: 0x0, symName: __ZNSt3__118generate_canonicalB8ue170006IdLm53ENS_23mersenne_twister_engineIjLm32ELm624ELm397ELm31ELj2567483615ELm11ELj4294967295ELm7ELj2636928640ELm15ELj4022730752ELm18ELj1812433253EEEEET_RT1_, symObjAddr: 0x9AF4, symBinAddr: 0x10000A9F0, symSize: 0x114 }
  - { offsetInCU: 0x1AAFA, offset: 0x1AAFA, size: 0x8, addend: 0x0, symName: __ZNSt3__122__make_exception_guardB8ue170006INS_6vectorI6VertexNS_9allocatorIS2_EEE16__destroy_vectorEEENS_28__exception_guard_exceptionsIT_EES8_, symObjAddr: 0x9FD8, symBinAddr: 0x10000AED4, symSize: 0x40 }
  - { offsetInCU: 0x1AB2F, offset: 0x1AB2F, size: 0x8, addend: 0x0, symName: __ZNSt3__130__uninitialized_allocator_copyB8ue170006INS_9allocatorI6VertexEEPS2_S4_S4_EET2_RT_T0_T1_S5_, symObjAddr: 0xA24C, symBinAddr: 0x10000B148, symSize: 0x80 }
  - { offsetInCU: 0x1ABCC, offset: 0x1ABCC, size: 0x8, addend: 0x0, symName: __ZNSt3__114__unwrap_rangeB8ue170006IP6VertexS2_EENS_4pairIT0_S4_EET_S6_, symObjAddr: 0xA2CC, symBinAddr: 0x10000B1C8, symSize: 0x60 }
  - { offsetInCU: 0x1AC18, offset: 0x1AC18, size: 0x8, addend: 0x0, symName: __ZNSt3__135__uninitialized_allocator_copy_implB8ue170006INS_9allocatorI6VertexEES2_S2_S2_LPv0EEEPT2_RT_PT0_SA_S6_, symObjAddr: 0xA32C, symBinAddr: 0x10000B228, symSize: 0x38 }
  - { offsetInCU: 0x1AC99, offset: 0x1AC99, size: 0x8, addend: 0x0, symName: __ZNSt3__113__unwrap_iterB8ue170006IP6VertexNS_18__unwrap_iter_implIS2_Lb1EEELi0EEEDTclsrT0_8__unwrapclsr3stdE7declvalIT_EEEES6_, symObjAddr: 0xA364, symBinAddr: 0x10000B260, symSize: 0x24 }
  - { offsetInCU: 0x1ACDD, offset: 0x1ACDD, size: 0x8, addend: 0x0, symName: __ZNSt3__113__rewrap_iterB8ue170006IP6VertexS2_NS_18__unwrap_iter_implIS2_Lb1EEEEET_S5_T0_, symObjAddr: 0xA388, symBinAddr: 0x10000B284, symSize: 0x3C }
  - { offsetInCU: 0x1AD32, offset: 0x1AD32, size: 0x8, addend: 0x0, symName: __ZNSt3__19make_pairB8ue170006IP6VertexS2_EENS_4pairINS_18__unwrap_ref_decayIT_E4typeENS4_IT0_E4typeEEEOS5_OS8_, symObjAddr: 0xA3C4, symBinAddr: 0x10000B2C0, symSize: 0x38 }
  - { offsetInCU: 0x1AE84, offset: 0x1AE84, size: 0x8, addend: 0x0, symName: __ZNSt3__14copyB8ue170006IP6VertexS2_EET0_T_S4_S3_, symObjAddr: 0xA46C, symBinAddr: 0x10000B368, symSize: 0x40 }
  - { offsetInCU: 0x1AEDE, offset: 0x1AEDE, size: 0x8, addend: 0x0, symName: __ZNSt3__16__copyB8ue170006INS_17_ClassicAlgPolicyEP6VertexS3_S3_EENS_4pairIT0_T2_EES5_T1_S6_, symObjAddr: 0xA4AC, symBinAddr: 0x10000B3A8, symSize: 0x44 }
  - { offsetInCU: 0x1AF4A, offset: 0x1AF4A, size: 0x8, addend: 0x0, symName: __ZNSt3__123__dispatch_copy_or_moveB8ue170006INS_17_ClassicAlgPolicyENS_11__copy_loopIS1_EENS_14__copy_trivialEP6VertexS6_S6_EENS_4pairIT2_T4_EES8_T3_S9_, symObjAddr: 0xA4F0, symBinAddr: 0x10000B3EC, symSize: 0x44 }
  - { offsetInCU: 0x1AFC8, offset: 0x1AFC8, size: 0x8, addend: 0x0, symName: __ZNSt3__121__unwrap_and_dispatchB8ue170006INS_10__overloadINS_11__copy_loopINS_17_ClassicAlgPolicyEEENS_14__copy_trivialEEEP6VertexS8_S8_Li0EEENS_4pairIT0_T2_EESA_T1_SB_, symObjAddr: 0xA534, symBinAddr: 0x10000B430, symSize: 0xB4 }
  - { offsetInCU: 0x1B09C, offset: 0x1B09C, size: 0x8, addend: 0x0, symName: __ZNSt3__114__rewrap_rangeB8ue170006IP6VertexS2_EET_S3_T0_, symObjAddr: 0xA630, symBinAddr: 0x10000B52C, symSize: 0x2C }
  - { offsetInCU: 0x1B0E8, offset: 0x1B0E8, size: 0x8, addend: 0x0, symName: __ZNSt3__119__copy_trivial_implB8ue170006I6VertexS1_EENS_4pairIPT_PT0_EES4_S4_S6_, symObjAddr: 0xA65C, symBinAddr: 0x10000B558, symSize: 0x88 }
  - { offsetInCU: 0x1B150, offset: 0x1B150, size: 0x8, addend: 0x0, symName: __ZNSt3__119__constexpr_memmoveB8ue170006I6VertexS1_Li0EEEPT_S3_PT0_NS_15__element_countE, symObjAddr: 0xA6E4, symBinAddr: 0x10000B5E0, symSize: 0x68 }
  - { offsetInCU: 0x1B1BE, offset: 0x1B1BE, size: 0x8, addend: 0x0, symName: __ZNSt3__19make_pairB8ue170006IRP6VertexS2_EENS_4pairINS_18__unwrap_ref_decayIT_E4typeENS5_IT0_E4typeEEEOS6_OS9_, symObjAddr: 0xA74C, symBinAddr: 0x10000B648, symSize: 0x38 }
  - { offsetInCU: 0x1B260, offset: 0x1B260, size: 0x8, addend: 0x0, symName: __ZNSt3__18distanceB8ue170006IP6VertexEENS_15iterator_traitsIT_E15difference_typeES4_S4_, symObjAddr: 0xACC8, symBinAddr: 0x10000BBC4, symSize: 0x2C }
  - { offsetInCU: 0x1B2A3, offset: 0x1B2A3, size: 0x8, addend: 0x0, symName: __ZNSt3__14nextB8ue170006IP6VertexEENS_9enable_ifIXsr29__has_input_iterator_categoryIT_EE5valueES4_E4typeES4_NS_15iterator_traitsIS4_E15difference_typeE, symObjAddr: 0xACF4, symBinAddr: 0x10000BBF0, symSize: 0x34 }
  - { offsetInCU: 0x1B2E6, offset: 0x1B2E6, size: 0x8, addend: 0x0, symName: __ZNSt3__121__convert_to_integralB8ue170006El, symObjAddr: 0xAE40, symBinAddr: 0x10000BD3C, symSize: 0x14 }
  - { offsetInCU: 0x1B313, offset: 0x1B313, size: 0x8, addend: 0x0, symName: __ZNSt3__19__advanceB8ue170006IP6VertexEEvRT_NS_15iterator_traitsIS3_E15difference_typeENS_26random_access_iterator_tagE, symObjAddr: 0xAE54, symBinAddr: 0x10000BD50, symSize: 0x30 }
  - { offsetInCU: 0x1B35B, offset: 0x1B35B, size: 0x8, addend: 0x0, symName: __ZNSt3__110__distanceB8ue170006IP6VertexEENS_15iterator_traitsIT_E15difference_typeES4_S4_NS_26random_access_iterator_tagE, symObjAddr: 0xAF98, symBinAddr: 0x10000BE94, symSize: 0x28 }
  - { offsetInCU: 0x1B3A8, offset: 0x1B3A8, size: 0x8, addend: 0x0, symName: __ZNSt3__112__to_addressB8ue170006I6NormalEEPT_S3_, symObjAddr: 0xBA1C, symBinAddr: 0x10000C918, symSize: 0x14 }
  - { offsetInCU: 0x1B3DD, offset: 0x1B3DD, size: 0x8, addend: 0x0, symName: __ZNSt3__119__allocate_at_leastB8ue170006INS_9allocatorI6NormalEEEENS_19__allocation_resultINS_16allocator_traitsIT_E7pointerEEERS6_m, symObjAddr: 0xC354, symBinAddr: 0x10000D250, symSize: 0x40 }
  - { offsetInCU: 0x1B420, offset: 0x1B420, size: 0x8, addend: 0x0, symName: __ZNSt3__142__uninitialized_allocator_move_if_noexceptB8ue170006INS_9allocatorI6NormalEENS_16reverse_iteratorIPS2_EES6_S2_vEET1_RT_T0_SA_S7_, symObjAddr: 0xC50C, symBinAddr: 0x10000D408, symSize: 0x78 }
  - { offsetInCU: 0x1B49D, offset: 0x1B49D, size: 0x8, addend: 0x0, symName: __ZNSt3__14swapB8ue170006IP6NormalEENS_9enable_ifIXaasr21is_move_constructibleIT_EE5valuesr18is_move_assignableIS4_EE5valueEvE4typeERS4_S7_, symObjAddr: 0xC5D0, symBinAddr: 0x10000D4CC, symSize: 0x3C }
  - { offsetInCU: 0x1B4EE, offset: 0x1B4EE, size: 0x8, addend: 0x0, symName: __ZNSt3__14moveB8ue170006INS_16reverse_iteratorIP6NormalEES4_EET0_T_S6_S5_, symObjAddr: 0xC6D4, symBinAddr: 0x10000D5D0, symSize: 0x78 }
  - { offsetInCU: 0x1B548, offset: 0x1B548, size: 0x8, addend: 0x0, symName: __ZNSt3__16__moveB8ue170006INS_17_ClassicAlgPolicyENS_16reverse_iteratorIP6NormalEES5_S5_EENS_4pairIT0_T2_EES7_T1_S8_, symObjAddr: 0xC74C, symBinAddr: 0x10000D648, symSize: 0x64 }
  - { offsetInCU: 0x1B5B4, offset: 0x1B5B4, size: 0x8, addend: 0x0, symName: __ZNSt3__123__dispatch_copy_or_moveB8ue170006INS_17_ClassicAlgPolicyENS_11__move_loopIS1_EENS_14__move_trivialENS_16reverse_iteratorIP6NormalEES8_S8_EENS_4pairIT2_T4_EESA_T3_SB_, symObjAddr: 0xC7B0, symBinAddr: 0x10000D6AC, symSize: 0x64 }
  - { offsetInCU: 0x1B632, offset: 0x1B632, size: 0x8, addend: 0x0, symName: __ZNSt3__121__unwrap_and_dispatchB8ue170006INS_10__overloadINS_11__move_loopINS_17_ClassicAlgPolicyEEENS_14__move_trivialEEENS_16reverse_iteratorIP6NormalEESA_SA_Li0EEENS_4pairIT0_T2_EESC_T1_SD_, symObjAddr: 0xC814, symBinAddr: 0x10000D710, symSize: 0x12C }
  - { offsetInCU: 0x1B6C2, offset: 0x1B6C2, size: 0x8, addend: 0x0, symName: __ZNSt3__114__unwrap_rangeB8ue170006INS_16reverse_iteratorIP6NormalEES4_EENS_4pairIT0_S6_EET_S8_, symObjAddr: 0xC940, symBinAddr: 0x10000D83C, symSize: 0x84 }
  - { offsetInCU: 0x1B7E2, offset: 0x1B7E2, size: 0x8, addend: 0x0, symName: __ZNSt3__113__unwrap_iterB8ue170006INS_16reverse_iteratorIP6NormalEENS_18__unwrap_iter_implIS4_Lb0EEELi0EEEDTclsrT0_8__unwrapclsr3stdE7declvalIT_EEEES8_, symObjAddr: 0xCA6C, symBinAddr: 0x10000D968, symSize: 0x44 }
  - { offsetInCU: 0x1B826, offset: 0x1B826, size: 0x8, addend: 0x0, symName: __ZNSt3__19make_pairB8ue170006INS_16reverse_iteratorIP6NormalEES4_EENS_4pairINS_18__unwrap_ref_decayIT_E4typeENS6_IT0_E4typeEEEOS7_OSA_, symObjAddr: 0xCAB0, symBinAddr: 0x10000D9AC, symSize: 0x38 }
  - { offsetInCU: 0x1B875, offset: 0x1B875, size: 0x8, addend: 0x0, symName: __ZNSt3__114__rewrap_rangeB8ue170006INS_16reverse_iteratorIP6NormalEES4_EET_S5_T0_, symObjAddr: 0xCAE8, symBinAddr: 0x10000D9E4, symSize: 0x5C }
  - { offsetInCU: 0x1B8C1, offset: 0x1B8C1, size: 0x8, addend: 0x0, symName: __ZNSt3__113__rewrap_iterB8ue170006INS_16reverse_iteratorIP6NormalEES4_NS_18__unwrap_iter_implIS4_Lb0EEEEET_S7_T0_, symObjAddr: 0xCB44, symBinAddr: 0x10000DA40, symSize: 0x74 }
  - { offsetInCU: 0x1B916, offset: 0x1B916, size: 0x8, addend: 0x0, symName: __ZNSt3__1neB8ue170006IP6NormalS2_EEbRKNS_16reverse_iteratorIT_EERKNS3_IT0_EE, symObjAddr: 0xCBB8, symBinAddr: 0x10000DAB4, symSize: 0x48 }
  - { offsetInCU: 0x1B9CE, offset: 0x1B9CE, size: 0x8, addend: 0x0, symName: __ZNSt3__122__make_exception_guardB8ue170006INS_6vectorI6NormalNS_9allocatorIS2_EEE16__destroy_vectorEEENS_28__exception_guard_exceptionsIT_EES8_, symObjAddr: 0xD024, symBinAddr: 0x10000DF20, symSize: 0x40 }
  - { offsetInCU: 0x1BA03, offset: 0x1BA03, size: 0x8, addend: 0x0, symName: __ZNSt3__122__make_exception_guardB8ue170006INS_6vectorIiNS_9allocatorIiEEE16__destroy_vectorEEENS_28__exception_guard_exceptionsIT_EES7_, symObjAddr: 0xD3E8, symBinAddr: 0x10000E2E4, symSize: 0x40 }
  - { offsetInCU: 0x1BA38, offset: 0x1BA38, size: 0x8, addend: 0x0, symName: __ZNSt3__119__allocate_at_leastB8ue170006INS_9allocatorIiEEEENS_19__allocation_resultINS_16allocator_traitsIT_E7pointerEEERS5_m, symObjAddr: 0xD7DC, symBinAddr: 0x10000E6D8, symSize: 0x40 }
  - { offsetInCU: 0x1BA7B, offset: 0x1BA7B, size: 0x8, addend: 0x0, symName: __ZNSt3__112__to_addressB8ue170006IiEEPT_S2_, symObjAddr: 0xDB00, symBinAddr: 0x10000E9FC, symSize: 0x14 }
  - { offsetInCU: 0x1BAB0, offset: 0x1BAB0, size: 0x8, addend: 0x0, symName: __ZNSt3__112__to_addressB8ue170006IfEEPT_S2_, symObjAddr: 0xE4B0, symBinAddr: 0x10000F3AC, symSize: 0x14 }
  - { offsetInCU: 0x1BAE5, offset: 0x1BAE5, size: 0x8, addend: 0x0, symName: __ZNSt3__119__allocate_at_leastB8ue170006INS_9allocatorIfEEEENS_19__allocation_resultINS_16allocator_traitsIT_E7pointerEEERS5_m, symObjAddr: 0xED40, symBinAddr: 0x10000FC3C, symSize: 0x40 }
  - { offsetInCU: 0x1BB28, offset: 0x1BB28, size: 0x8, addend: 0x0, symName: __ZNSt3__142__uninitialized_allocator_move_if_noexceptB8ue170006INS_9allocatorIfEENS_16reverse_iteratorIPfEES5_fvEET1_RT_T0_S9_S6_, symObjAddr: 0xEEF4, symBinAddr: 0x10000FDF0, symSize: 0x78 }
  - { offsetInCU: 0x1BBA5, offset: 0x1BBA5, size: 0x8, addend: 0x0, symName: __ZNSt3__14swapB8ue170006IPfEENS_9enable_ifIXaasr21is_move_constructibleIT_EE5valuesr18is_move_assignableIS3_EE5valueEvE4typeERS3_S6_, symObjAddr: 0xEFB8, symBinAddr: 0x10000FEB4, symSize: 0x3C }
  - { offsetInCU: 0x1BBF6, offset: 0x1BBF6, size: 0x8, addend: 0x0, symName: __ZNSt3__14moveB8ue170006INS_16reverse_iteratorIPfEES3_EET0_T_S5_S4_, symObjAddr: 0xF0A0, symBinAddr: 0x10000FF9C, symSize: 0x78 }
  - { offsetInCU: 0x1BC50, offset: 0x1BC50, size: 0x8, addend: 0x0, symName: __ZNSt3__16__moveB8ue170006INS_17_ClassicAlgPolicyENS_16reverse_iteratorIPfEES4_S4_EENS_4pairIT0_T2_EES6_T1_S7_, symObjAddr: 0xF118, symBinAddr: 0x100010014, symSize: 0x64 }
  - { offsetInCU: 0x1BCBC, offset: 0x1BCBC, size: 0x8, addend: 0x0, symName: __ZNSt3__123__dispatch_copy_or_moveB8ue170006INS_17_ClassicAlgPolicyENS_11__move_loopIS1_EENS_14__move_trivialENS_16reverse_iteratorIPfEES7_S7_EENS_4pairIT2_T4_EES9_T3_SA_, symObjAddr: 0xF17C, symBinAddr: 0x100010078, symSize: 0x64 }
  - { offsetInCU: 0x1BD3A, offset: 0x1BD3A, size: 0x8, addend: 0x0, symName: __ZNSt3__121__unwrap_and_dispatchB8ue170006INS_10__overloadINS_11__move_loopINS_17_ClassicAlgPolicyEEENS_14__move_trivialEEENS_16reverse_iteratorIPfEES9_S9_Li0EEENS_4pairIT0_T2_EESB_T1_SC_, symObjAddr: 0xF1E0, symBinAddr: 0x1000100DC, symSize: 0x12C }
  - { offsetInCU: 0x1BDCA, offset: 0x1BDCA, size: 0x8, addend: 0x0, symName: __ZNSt3__114__unwrap_rangeB8ue170006INS_16reverse_iteratorIPfEES3_EENS_4pairIT0_S5_EET_S7_, symObjAddr: 0xF30C, symBinAddr: 0x100010208, symSize: 0x84 }
  - { offsetInCU: 0x1BEEA, offset: 0x1BEEA, size: 0x8, addend: 0x0, symName: __ZNSt3__113__unwrap_iterB8ue170006INS_16reverse_iteratorIPfEENS_18__unwrap_iter_implIS3_Lb0EEELi0EEEDTclsrT0_8__unwrapclsr3stdE7declvalIT_EEEES7_, symObjAddr: 0xF430, symBinAddr: 0x10001032C, symSize: 0x44 }
  - { offsetInCU: 0x1BF2E, offset: 0x1BF2E, size: 0x8, addend: 0x0, symName: __ZNSt3__19make_pairB8ue170006INS_16reverse_iteratorIPfEES3_EENS_4pairINS_18__unwrap_ref_decayIT_E4typeENS5_IT0_E4typeEEEOS6_OS9_, symObjAddr: 0xF474, symBinAddr: 0x100010370, symSize: 0x38 }
  - { offsetInCU: 0x1BF7D, offset: 0x1BF7D, size: 0x8, addend: 0x0, symName: __ZNSt3__114__rewrap_rangeB8ue170006INS_16reverse_iteratorIPfEES3_EET_S4_T0_, symObjAddr: 0xF4AC, symBinAddr: 0x1000103A8, symSize: 0x5C }
  - { offsetInCU: 0x1BFC9, offset: 0x1BFC9, size: 0x8, addend: 0x0, symName: __ZNSt3__113__rewrap_iterB8ue170006INS_16reverse_iteratorIPfEES3_NS_18__unwrap_iter_implIS3_Lb0EEEEET_S6_T0_, symObjAddr: 0xF508, symBinAddr: 0x100010404, symSize: 0x74 }
  - { offsetInCU: 0x1C01E, offset: 0x1C01E, size: 0x8, addend: 0x0, symName: __ZNSt3__1neB8ue170006IPfS1_EEbRKNS_16reverse_iteratorIT_EERKNS2_IT0_EE, symObjAddr: 0xF57C, symBinAddr: 0x100010478, symSize: 0x48 }
  - { offsetInCU: 0x1C0D6, offset: 0x1C0D6, size: 0x8, addend: 0x0, symName: __ZNSt3__122__make_exception_guardB8ue170006INS_6vectorIN3glm5tvec3IfLNS2_9precisionE0EEENS_9allocatorIS5_EEE16__destroy_vectorEEENS_28__exception_guard_exceptionsIT_EESB_, symObjAddr: 0xFA68, symBinAddr: 0x100010964, symSize: 0x40 }
  - { offsetInCU: 0x1C10B, offset: 0x1C10B, size: 0x8, addend: 0x0, symName: __ZNSt3__119__allocate_at_leastB8ue170006INS_9allocatorIN3glm5tvec3IfLNS2_9precisionE0EEEEEEENS_19__allocation_resultINS_16allocator_traitsIT_E7pointerEEERS9_m, symObjAddr: 0xFE78, symBinAddr: 0x100010D74, symSize: 0x40 }
  - { offsetInCU: 0x1C14E, offset: 0x1C14E, size: 0x8, addend: 0x0, symName: __ZNSt3__112__to_addressB8ue170006IN3glm5tvec3IfLNS1_9precisionE0EEEEEPT_S6_, symObjAddr: 0x101C0, symBinAddr: 0x1000110BC, symSize: 0x14 }
  - { offsetInCU: 0x1C183, offset: 0x1C183, size: 0x8, addend: 0x0, symName: __ZNSt3__130__uninitialized_allocator_copyB8ue170006INS_9allocatorIN3glm5tvec3IfLNS2_9precisionE0EEEEEPKS5_S8_PS5_EET2_RT_T0_T1_SA_, symObjAddr: 0x10270, symBinAddr: 0x10001116C, symSize: 0x80 }
  - { offsetInCU: 0x1C220, offset: 0x1C220, size: 0x8, addend: 0x0, symName: __ZNSt3__114__unwrap_rangeB8ue170006IPKN3glm5tvec3IfLNS1_9precisionE0EEES6_EENS_4pairIT0_S8_EET_SA_, symObjAddr: 0x10368, symBinAddr: 0x100011264, symSize: 0x60 }
  - { offsetInCU: 0x1C26C, offset: 0x1C26C, size: 0x8, addend: 0x0, symName: __ZNSt3__135__uninitialized_allocator_copy_implB8ue170006INS_9allocatorIN3glm5tvec3IfLNS2_9precisionE0EEEEEPKS5_S8_PS5_EET2_RT_T0_T1_SA_, symObjAddr: 0x103C8, symBinAddr: 0x1000112C4, symSize: 0xF4 }
  - { offsetInCU: 0x1C30A, offset: 0x1C30A, size: 0x8, addend: 0x0, symName: __ZNSt3__113__unwrap_iterB8ue170006IPN3glm5tvec3IfLNS1_9precisionE0EEENS_18__unwrap_iter_implIS5_Lb1EEELi0EEEDTclsrT0_8__unwrapclsr3stdE7declvalIT_EEEES9_, symObjAddr: 0x104BC, symBinAddr: 0x1000113B8, symSize: 0x24 }
  - { offsetInCU: 0x1C34E, offset: 0x1C34E, size: 0x8, addend: 0x0, symName: __ZNSt3__113__rewrap_iterB8ue170006IPN3glm5tvec3IfLNS1_9precisionE0EEES5_NS_18__unwrap_iter_implIS5_Lb1EEEEET_S8_T0_, symObjAddr: 0x104E0, symBinAddr: 0x1000113DC, symSize: 0x3C }
  - { offsetInCU: 0x1C3A3, offset: 0x1C3A3, size: 0x8, addend: 0x0, symName: __ZNSt3__19make_pairB8ue170006IPKN3glm5tvec3IfLNS1_9precisionE0EEES6_EENS_4pairINS_18__unwrap_ref_decayIT_E4typeENS8_IT0_E4typeEEEOS9_OSC_, symObjAddr: 0x1051C, symBinAddr: 0x100011418, symSize: 0x38 }
  - { offsetInCU: 0x1C3F2, offset: 0x1C3F2, size: 0x8, addend: 0x0, symName: __ZNSt3__113__unwrap_iterB8ue170006IPKN3glm5tvec3IfLNS1_9precisionE0EEENS_18__unwrap_iter_implIS6_Lb1EEELi0EEEDTclsrT0_8__unwrapclsr3stdE7declvalIT_EEEESA_, symObjAddr: 0x10554, symBinAddr: 0x100011450, symSize: 0x24 }
  - { offsetInCU: 0x1C55D, offset: 0x1C55D, size: 0x8, addend: 0x0, symName: __ZNSt3__112__to_addressB8ue170006IKN3glm5tvec3IfLNS1_9precisionE0EEEEEPT_S7_, symObjAddr: 0x1060C, symBinAddr: 0x100011508, symSize: 0x14 }
  - { offsetInCU: 0x1C592, offset: 0x1C592, size: 0x8, addend: 0x0, symName: __ZNSt3__122__make_exception_guardB8ue170006INS_29_AllocatorDestroyRangeReverseINS_9allocatorIN3glm5tvec3IfLNS3_9precisionE0EEEEEPS6_EEEENS_28__exception_guard_exceptionsIT_EESB_, symObjAddr: 0x10620, symBinAddr: 0x10001151C, symSize: 0x4C }
  - { offsetInCU: 0x1C5C9, offset: 0x1C5C9, size: 0x8, addend: 0x0, symName: __ZNSt3__119__allocator_destroyB8ue170006INS_9allocatorIN3glm5tvec3IfLNS2_9precisionE0EEEEENS_16reverse_iteratorIPS5_EES9_EEvRT_T0_T1_, symObjAddr: 0x10920, symBinAddr: 0x10001181C, symSize: 0x70 }
  - { offsetInCU: 0x1C62B, offset: 0x1C62B, size: 0x8, addend: 0x0, symName: __ZNSt3__1neB8ue170006IPN3glm5tvec3IfLNS1_9precisionE0EEES5_EEbRKNS_16reverse_iteratorIT_EERKNS6_IT0_EE, symObjAddr: 0x109C4, symBinAddr: 0x1000118C0, symSize: 0x48 }
  - { offsetInCU: 0x1C677, offset: 0x1C677, size: 0x8, addend: 0x0, symName: __ZNSt3__112__to_addressB8ue170006INS_16reverse_iteratorIPN3glm5tvec3IfLNS2_9precisionE0EEEEEvEEu7__decayIDTclsr19__to_address_helperIT_EE6__callclsr3stdE7declvalIRKS8_EEEEESA_, symObjAddr: 0x10A38, symBinAddr: 0x100011934, symSize: 0x24 }
  - { offsetInCU: 0x1D33C, offset: 0x1D33C, size: 0x8, addend: 0x0, symName: __ZSt28__throw_bad_array_new_lengthB8ue170006v, symObjAddr: 0x73C4, symBinAddr: 0x1000082C0, symSize: 0x34 }
  - { offsetInCU: 0x1E048, offset: 0x1E048, size: 0x8, addend: 0x0, symName: __ZNSt3__16vectorI6VertexNS_9allocatorIS1_EEE26__swap_out_circular_bufferERNS_14__split_bufferIS1_RS3_EE, symObjAddr: 0x6C2C, symBinAddr: 0x100007B28, symSize: 0x110 }
  - { offsetInCU: 0x1E266, offset: 0x1E266, size: 0x8, addend: 0x0, symName: __ZNSt3__16vectorI4FaceNS_9allocatorIS1_EEE26__swap_out_circular_bufferERNS_14__split_bufferIS1_RS3_EE, symObjAddr: 0x86B0, symBinAddr: 0x1000095AC, symSize: 0x110 }
  - { offsetInCU: 0x1E494, offset: 0x1E494, size: 0x8, addend: 0x0, symName: __ZNSt3__16vectorI6NormalNS_9allocatorIS1_EEE26__swap_out_circular_bufferERNS_14__split_bufferIS1_RS3_EE, symObjAddr: 0xBFE4, symBinAddr: 0x10000CEE0, symSize: 0x110 }
  - { offsetInCU: 0x1E78C, offset: 0x1E78C, size: 0x8, addend: 0x0, symName: __ZNSt3__16vectorIfNS_9allocatorIfEEE26__swap_out_circular_bufferERNS_14__split_bufferIfRS2_EE, symObjAddr: 0xE9E0, symBinAddr: 0x10000F8DC, symSize: 0x110 }
  - { offsetInCU: 0x20C56, offset: 0x20C56, size: 0x8, addend: 0x0, symName: __ZN3glm5tvec3IfLNS_9precisionE0EEC1ERKfS4_S4_, symObjAddr: 0x0, symBinAddr: 0x100000EFC, symSize: 0x44 }
  - { offsetInCU: 0x20CAB, offset: 0x20CAB, size: 0x8, addend: 0x0, symName: __Z7loadOBJRKNSt3__112basic_stringIcNS_11char_traitsIcEENS_9allocatorIcEEEERNS_6vectorI6VertexNS3_IS9_EEEERNS8_I4FaceNS3_ISD_EEEE, symObjAddr: 0x44, symBinAddr: 0x100000F40, symSize: 0x354 }
  - { offsetInCU: 0x20E91, offset: 0x20E91, size: 0x8, addend: 0x0, symName: __ZNSt3__114basic_ifstreamIcNS_11char_traitsIcEEEC1ERKNS_12basic_stringIcS2_NS_9allocatorIcEEEEj, symObjAddr: 0x398, symBinAddr: 0x100001294, symSize: 0x16C }
  - { offsetInCU: 0x20EDB, offset: 0x20EDB, size: 0x8, addend: 0x0, symName: __ZNKSt3__114basic_ifstreamIcNS_11char_traitsIcEEE7is_openEv, symObjAddr: 0x504, symBinAddr: 0x100001400, symSize: 0x2C }
  - { offsetInCU: 0x20F03, offset: 0x20F03, size: 0x8, addend: 0x0, symName: __ZNSt3__113basic_ostreamIcNS_11char_traitsIcEEElsB8ue170006EPFRS3_S4_E, symObjAddr: 0x5C4, symBinAddr: 0x1000014C0, symSize: 0x2C }
  - { offsetInCU: 0x20F37, offset: 0x20F37, size: 0x8, addend: 0x0, symName: __ZNSt3__112basic_stringIcNS_11char_traitsIcEENS_9allocatorIcEEEC1B8ue170006Ev, symObjAddr: 0x648, symBinAddr: 0x100001544, symSize: 0x2C }
  - { offsetInCU: 0x20F61, offset: 0x20F61, size: 0x8, addend: 0x0, symName: __ZNKSt3__19basic_iosIcNS_11char_traitsIcEEEcvbB8ue170006Ev, symObjAddr: 0x6D0, symBinAddr: 0x1000015CC, symSize: 0x2C }
  - { offsetInCU: 0x20FD9, offset: 0x20FD9, size: 0x8, addend: 0x0, symName: __ZNSt3__119basic_istringstreamIcNS_11char_traitsIcEENS_9allocatorIcEEEC1B8ue170006ERKNS_12basic_stringIcS2_S4_EEj, symObjAddr: 0x6FC, symBinAddr: 0x1000015F8, symSize: 0xFC }
  - { offsetInCU: 0x21021, offset: 0x21021, size: 0x8, addend: 0x0, symName: __ZNSt3__16vectorI6VertexNS_9allocatorIS1_EEE9push_backB8ue170006ERKS1_, symObjAddr: 0xBAC, symBinAddr: 0x100001AA8, symSize: 0x6C }
  - { offsetInCU: 0x21058, offset: 0x21058, size: 0x8, addend: 0x0, symName: __ZNSt3__16vectorI4FaceNS_9allocatorIS1_EEE9push_backB8ue170006ERKS1_, symObjAddr: 0xC18, symBinAddr: 0x100001B14, symSize: 0x6C }
  - { offsetInCU: 0x21094, offset: 0x21094, size: 0x8, addend: 0x0, symName: __ZNSt3__119basic_istringstreamIcNS_11char_traitsIcEENS_9allocatorIcEEED1Ev, symObjAddr: 0xC84, symBinAddr: 0x100001B80, symSize: 0x40 }
  - { offsetInCU: 0x210C1, offset: 0x210C1, size: 0x8, addend: 0x0, symName: __ZNSt3__114basic_ifstreamIcNS_11char_traitsIcEEE5closeEv, symObjAddr: 0xCC4, symBinAddr: 0x100001BC0, symSize: 0x58 }
  - { offsetInCU: 0x210EE, offset: 0x210EE, size: 0x8, addend: 0x0, symName: __ZNSt3__114basic_ifstreamIcNS_11char_traitsIcEEED1Ev, symObjAddr: 0xD1C, symBinAddr: 0x100001C18, symSize: 0x40 }
  - { offsetInCU: 0x2111A, offset: 0x2111A, size: 0x8, addend: 0x0, symName: __Z19calculateFaceNormalRK6VertexS1_S1_, symObjAddr: 0xD5C, symBinAddr: 0x100001C58, symSize: 0x188 }
  - { offsetInCU: 0x211D2, offset: 0x211D2, size: 0x8, addend: 0x0, symName: __Z4sqrtB8ue170006f, symObjAddr: 0xEE4, symBinAddr: 0x100001DE0, symSize: 0x18 }
  - { offsetInCU: 0x21200, offset: 0x21200, size: 0x8, addend: 0x0, symName: __Z18addNoiseToVerticesRNSt3__16vectorI6VertexNS_9allocatorIS1_EEEERKNS0_I6NormalNS2_IS6_EEEEf, symObjAddr: 0xEFC, symBinAddr: 0x100001DF8, symSize: 0x1E0 }
  - { offsetInCU: 0x212C4, offset: 0x212C4, size: 0x8, addend: 0x0, symName: __ZNSt3__113random_deviceC1B8ue170006Ev, symObjAddr: 0x10DC, symBinAddr: 0x100001FD8, symSize: 0x74 }
  - { offsetInCU: 0x212EE, offset: 0x212EE, size: 0x8, addend: 0x0, symName: __ZNSt3__123mersenne_twister_engineIjLm32ELm624ELm397ELm31ELj2567483615ELm11ELj4294967295ELm7ELj2636928640ELm15ELj4022730752ELm18ELj1812433253EEC1B8ue170006Ej, symObjAddr: 0x1150, symBinAddr: 0x10000204C, symSize: 0x34 }
  - { offsetInCU: 0x21349, offset: 0x21349, size: 0x8, addend: 0x0, symName: __ZNSt3__125uniform_real_distributionIdEC1B8ue170006Edd, symObjAddr: 0x1184, symBinAddr: 0x100002080, symSize: 0x3C }
  - { offsetInCU: 0x2138F, offset: 0x2138F, size: 0x8, addend: 0x0, symName: __ZNKSt3__16vectorI6VertexNS_9allocatorIS1_EEE4sizeB8ue170006Ev, symObjAddr: 0x11C0, symBinAddr: 0x1000020BC, symSize: 0x28 }
  - { offsetInCU: 0x213BA, offset: 0x213BA, size: 0x8, addend: 0x0, symName: __ZNSt3__125uniform_real_distributionIdEclB8ue170006INS_23mersenne_twister_engineIjLm32ELm624ELm397ELm31ELj2567483615ELm11ELj4294967295ELm7ELj2636928640ELm15ELj4022730752ELm18ELj1812433253EEEEEdRT_, symObjAddr: 0x11E8, symBinAddr: 0x1000020E4, symSize: 0x30 }
  - { offsetInCU: 0x213F7, offset: 0x213F7, size: 0x8, addend: 0x0, symName: __ZNKSt3__16vectorI6NormalNS_9allocatorIS1_EEEixB8ue170006Em, symObjAddr: 0x1218, symBinAddr: 0x100002114, symSize: 0x2C }
  - { offsetInCU: 0x2142E, offset: 0x2142E, size: 0x8, addend: 0x0, symName: __ZNSt3__16vectorI6VertexNS_9allocatorIS1_EEEixB8ue170006Em, symObjAddr: 0x1244, symBinAddr: 0x100002140, symSize: 0x2C }
  - { offsetInCU: 0x21464, offset: 0x21464, size: 0x8, addend: 0x0, symName: __Z18laplacianSmoothingRNSt3__16vectorI6VertexNS_9allocatorIS1_EEEERKNS0_I4FaceNS2_IS6_EEEEf, symObjAddr: 0x1270, symBinAddr: 0x10000216C, symSize: 0x448 }
  - { offsetInCU: 0x21551, offset: 0x21551, size: 0x8, addend: 0x0, symName: __ZNSt3__16vectorI6VertexNS_9allocatorIS1_EEEC1ERKS4_, symObjAddr: 0x16B8, symBinAddr: 0x1000025B4, symSize: 0x34 }
  - { offsetInCU: 0x2158C, offset: 0x2158C, size: 0x8, addend: 0x0, symName: __ZNKSt3__16vectorI4FaceNS_9allocatorIS1_EEE5beginB8ue170006Ev, symObjAddr: 0x16EC, symBinAddr: 0x1000025E8, symSize: 0x30 }
  - { offsetInCU: 0x215B4, offset: 0x215B4, size: 0x8, addend: 0x0, symName: __ZNKSt3__16vectorI4FaceNS_9allocatorIS1_EEE3endB8ue170006Ev, symObjAddr: 0x171C, symBinAddr: 0x100002618, symSize: 0x30 }
  - { offsetInCU: 0x215DC, offset: 0x215DC, size: 0x8, addend: 0x0, symName: __ZNKSt3__111__wrap_iterIPK4FaceEdeB8ue170006Ev, symObjAddr: 0x1780, symBinAddr: 0x10000267C, symSize: 0x18 }
  - { offsetInCU: 0x21602, offset: 0x21602, size: 0x8, addend: 0x0, symName: __ZNSt3__111__wrap_iterIPK4FaceEppB8ue170006Ev, symObjAddr: 0x1798, symBinAddr: 0x100002694, symSize: 0x20 }
  - { offsetInCU: 0x21628, offset: 0x21628, size: 0x8, addend: 0x0, symName: __ZNSt3__16vectorI6VertexNS_9allocatorIS1_EEEaSB8ue170006ERKS4_, symObjAddr: 0x17B8, symBinAddr: 0x1000026B4, symSize: 0x68 }
  - { offsetInCU: 0x2165F, offset: 0x2165F, size: 0x8, addend: 0x0, symName: __ZNSt3__16vectorI6VertexNS_9allocatorIS1_EEED1B8ue170006Ev, symObjAddr: 0x1820, symBinAddr: 0x10000271C, symSize: 0x2C }
  - { offsetInCU: 0x21688, offset: 0x21688, size: 0x8, addend: 0x0, symName: __Z16initializeWindowv, symObjAddr: 0x184C, symBinAddr: 0x100002748, symSize: 0x148 }
  - { offsetInCU: 0x216B4, offset: 0x216B4, size: 0x8, addend: 0x0, symName: __Z19createShaderProgramv, symObjAddr: 0x1994, symBinAddr: 0x100002890, symSize: 0x144 }
  - { offsetInCU: 0x21701, offset: 0x21701, size: 0x8, addend: 0x0, symName: __Z14mouse_callbackP10GLFWwindowdd, symObjAddr: 0x1AD8, symBinAddr: 0x1000029D4, symSize: 0x214 }
  - { offsetInCU: 0x21785, offset: 0x21785, size: 0x8, addend: 0x0, symName: __ZN3glm5tvec3IfLNS_9precisionE0EEC1Ev, symObjAddr: 0x1CEC, symBinAddr: 0x100002BE8, symSize: 0x2C }
  - { offsetInCU: 0x217B0, offset: 0x217B0, size: 0x8, addend: 0x0, symName: __Z3cosB8ue170006f, symObjAddr: 0x1D18, symBinAddr: 0x100002C14, symSize: 0x24 }
  - { offsetInCU: 0x217DE, offset: 0x217DE, size: 0x8, addend: 0x0, symName: __Z3sinB8ue170006f, symObjAddr: 0x1D60, symBinAddr: 0x100002C5C, symSize: 0x24 }
  - { offsetInCU: 0x2180D, offset: 0x2180D, size: 0x8, addend: 0x0, symName: __ZN3glm5tvec3IfLNS_9precisionE0EEaSERKS2_, symObjAddr: 0x1DD4, symBinAddr: 0x100002CD0, symSize: 0x3C }
  - { offsetInCU: 0x21843, offset: 0x21843, size: 0x8, addend: 0x0, symName: __Z15scroll_callbackP10GLFWwindowdd, symObjAddr: 0x1E10, symBinAddr: 0x100002D0C, symSize: 0x70 }
  - { offsetInCU: 0x2188B, offset: 0x2188B, size: 0x8, addend: 0x0, symName: __ZN3glm5tvec3IfLNS_9precisionE0EEpLIfEERS2_RKNS0_IT_LS1_0EEE, symObjAddr: 0x1F98, symBinAddr: 0x100002E94, symSize: 0x54 }
  - { offsetInCU: 0x218CA, offset: 0x218CA, size: 0x8, addend: 0x0, symName: __ZNSt3__16vectorI6VertexNS_9allocatorIS1_EEEC1B8ue170006Ev, symObjAddr: 0x3C98, symBinAddr: 0x100004B94, symSize: 0x2C }
  - { offsetInCU: 0x218F4, offset: 0x218F4, size: 0x8, addend: 0x0, symName: __ZNSt3__16vectorI4FaceNS_9allocatorIS1_EEEC1B8ue170006Ev, symObjAddr: 0x3CC4, symBinAddr: 0x100004BC0, symSize: 0x2C }
  - { offsetInCU: 0x21923, offset: 0x21923, size: 0x8, addend: 0x0, symName: __ZNSt3__112basic_stringIcNS_11char_traitsIcEENS_9allocatorIcEEEC1B8ue170006ILi0EEEPKc, symObjAddr: 0x3CF0, symBinAddr: 0x100004BEC, symSize: 0x34 }
  - { offsetInCU: 0x21962, offset: 0x21962, size: 0x8, addend: 0x0, symName: __ZNKSt3__16vectorI4FaceNS_9allocatorIS1_EEE4sizeB8ue170006Ev, symObjAddr: 0x3D24, symBinAddr: 0x100004C20, symSize: 0x28 }
  - { offsetInCU: 0x21988, offset: 0x21988, size: 0x8, addend: 0x0, symName: __ZNSt3__16vectorI6NormalNS_9allocatorIS1_EEEC1B8ue170006Ev, symObjAddr: 0x3D4C, symBinAddr: 0x100004C48, symSize: 0x2C }
  - { offsetInCU: 0x219B2, offset: 0x219B2, size: 0x8, addend: 0x0, symName: __ZNSt3__16vectorI4FaceNS_9allocatorIS1_EEE5beginB8ue170006Ev, symObjAddr: 0x3D78, symBinAddr: 0x100004C74, symSize: 0x30 }
  - { offsetInCU: 0x219DA, offset: 0x219DA, size: 0x8, addend: 0x0, symName: __ZNSt3__16vectorI4FaceNS_9allocatorIS1_EEE3endB8ue170006Ev, symObjAddr: 0x3DA8, symBinAddr: 0x100004CA4, symSize: 0x30 }
  - { offsetInCU: 0x21A02, offset: 0x21A02, size: 0x8, addend: 0x0, symName: __ZNKSt3__111__wrap_iterIP4FaceEdeB8ue170006Ev, symObjAddr: 0x3E0C, symBinAddr: 0x100004D08, symSize: 0x18 }
  - { offsetInCU: 0x21A28, offset: 0x21A28, size: 0x8, addend: 0x0, symName: __ZNSt3__16vectorI6NormalNS_9allocatorIS1_EEE9push_backB8ue170006ERKS1_, symObjAddr: 0x3E24, symBinAddr: 0x100004D20, symSize: 0x6C }
  - { offsetInCU: 0x21A5F, offset: 0x21A5F, size: 0x8, addend: 0x0, symName: __ZNSt3__111__wrap_iterIP4FaceEppB8ue170006Ev, symObjAddr: 0x3E90, symBinAddr: 0x100004D8C, symSize: 0x20 }
  - { offsetInCU: 0x21A85, offset: 0x21A85, size: 0x8, addend: 0x0, symName: __ZNSt3__16vectorI6NormalNS_9allocatorIS1_EEEC1EmRKS1_, symObjAddr: 0x3EB0, symBinAddr: 0x100004DAC, symSize: 0x3C }
  - { offsetInCU: 0x21ACF, offset: 0x21ACF, size: 0x8, addend: 0x0, symName: __ZNSt3__16vectorIiNS_9allocatorIiEEEC1EmRKi, symObjAddr: 0x3EEC, symBinAddr: 0x100004DE8, symSize: 0x3C }
  - { offsetInCU: 0x21B19, offset: 0x21B19, size: 0x8, addend: 0x0, symName: __ZNSt3__16vectorI4FaceNS_9allocatorIS1_EEEixB8ue170006Em, symObjAddr: 0x3F28, symBinAddr: 0x100004E24, symSize: 0x2C }
  - { offsetInCU: 0x21B50, offset: 0x21B50, size: 0x8, addend: 0x0, symName: __ZNSt3__16vectorI6NormalNS_9allocatorIS1_EEEixB8ue170006Em, symObjAddr: 0x3F54, symBinAddr: 0x100004E50, symSize: 0x2C }
  - { offsetInCU: 0x21B87, offset: 0x21B87, size: 0x8, addend: 0x0, symName: __ZNSt3__16vectorIiNS_9allocatorIiEEEixB8ue170006Em, symObjAddr: 0x3F80, symBinAddr: 0x100004E7C, symSize: 0x24 }
  - { offsetInCU: 0x21BBE, offset: 0x21BBE, size: 0x8, addend: 0x0, symName: __ZNKSt3__16vectorI6NormalNS_9allocatorIS1_EEE4sizeB8ue170006Ev, symObjAddr: 0x3FA4, symBinAddr: 0x100004EA0, symSize: 0x28 }
  - { offsetInCU: 0x21BE4, offset: 0x21BE4, size: 0x8, addend: 0x0, symName: __ZNSt3__16vectorIfNS_9allocatorIfEEEC1B8ue170006Ev, symObjAddr: 0x3FCC, symBinAddr: 0x100004EC8, symSize: 0x2C }
  - { offsetInCU: 0x21C0E, offset: 0x21C0E, size: 0x8, addend: 0x0, symName: __ZNSt3__16vectorIfNS_9allocatorIfEEE9push_backB8ue170006ERKf, symObjAddr: 0x3FF8, symBinAddr: 0x100004EF4, symSize: 0x6C }
  - { offsetInCU: 0x21C45, offset: 0x21C45, size: 0x8, addend: 0x0, symName: __ZNKSt3__16vectorIfNS_9allocatorIfEEE4sizeB8ue170006Ev, symObjAddr: 0x4064, symBinAddr: 0x100004F60, symSize: 0x28 }
  - { offsetInCU: 0x21C6B, offset: 0x21C6B, size: 0x8, addend: 0x0, symName: __ZNSt3__16vectorIfNS_9allocatorIfEEE4dataB8ue170006Ev, symObjAddr: 0x408C, symBinAddr: 0x100004F88, symSize: 0x28 }
  - { offsetInCU: 0x21C91, offset: 0x21C91, size: 0x8, addend: 0x0, symName: __ZNSt3__16vectorIN3glm5tvec3IfLNS1_9precisionE0EEENS_9allocatorIS4_EEEC1B8ue170006ESt16initializer_listIS4_E, symObjAddr: 0x40C8, symBinAddr: 0x100004FC4, symSize: 0x3C }
  - { offsetInCU: 0x21CCC, offset: 0x21CCC, size: 0x8, addend: 0x0, symName: __ZNKSt3__16vectorIN3glm5tvec3IfLNS1_9precisionE0EEENS_9allocatorIS4_EEE4sizeB8ue170006Ev, symObjAddr: 0x4104, symBinAddr: 0x100005000, symSize: 0x28 }
  - { offsetInCU: 0x21CF2, offset: 0x21CF2, size: 0x8, addend: 0x0, symName: __ZNSt3__16vectorIN3glm5tvec3IfLNS1_9precisionE0EEENS_9allocatorIS4_EEEixB8ue170006Em, symObjAddr: 0x412C, symBinAddr: 0x100005028, symSize: 0x2C }
  - { offsetInCU: 0x21D29, offset: 0x21D29, size: 0x8, addend: 0x0, symName: __ZN3glm5tvec3IfLNS_9precisionE0EEmIIfEERS2_RKNS0_IT_LS1_0EEE, symObjAddr: 0x4158, symBinAddr: 0x100005054, symSize: 0x54 }
  - { offsetInCU: 0x21D69, offset: 0x21D69, size: 0x8, addend: 0x0, symName: __ZNSt3__16vectorIfNS_9allocatorIfEEE5clearB8ue170006Ev, symObjAddr: 0x4274, symBinAddr: 0x100005170, symSize: 0x44 }
  - { offsetInCU: 0x21D9E, offset: 0x21D9E, size: 0x8, addend: 0x0, symName: __ZN3glm7tmat4x4IfLNS_9precisionE0EEC1ERKf, symObjAddr: 0x4A04, symBinAddr: 0x100005900, symSize: 0x34 }
  - { offsetInCU: 0x21DD8, offset: 0x21DD8, size: 0x8, addend: 0x0, symName: __ZN3glm7tmat4x4IfLNS_9precisionE0EED1Ev, symObjAddr: 0x4A38, symBinAddr: 0x100005934, symSize: 0x2C }
  - { offsetInCU: 0x21E04, offset: 0x21E04, size: 0x8, addend: 0x0, symName: __ZNSt3__16vectorIN3glm5tvec3IfLNS1_9precisionE0EEENS_9allocatorIS4_EEED1B8ue170006Ev, symObjAddr: 0x4A64, symBinAddr: 0x100005960, symSize: 0x2C }
  - { offsetInCU: 0x21E2E, offset: 0x21E2E, size: 0x8, addend: 0x0, symName: __ZNSt3__16vectorIfNS_9allocatorIfEEED1B8ue170006Ev, symObjAddr: 0x4A90, symBinAddr: 0x10000598C, symSize: 0x2C }
  - { offsetInCU: 0x21E58, offset: 0x21E58, size: 0x8, addend: 0x0, symName: __ZNSt3__16vectorIiNS_9allocatorIiEEED1B8ue170006Ev, symObjAddr: 0x4ABC, symBinAddr: 0x1000059B8, symSize: 0x2C }
  - { offsetInCU: 0x21E82, offset: 0x21E82, size: 0x8, addend: 0x0, symName: __ZNSt3__16vectorI6NormalNS_9allocatorIS1_EEED1B8ue170006Ev, symObjAddr: 0x4AE8, symBinAddr: 0x1000059E4, symSize: 0x2C }
  - { offsetInCU: 0x21EAC, offset: 0x21EAC, size: 0x8, addend: 0x0, symName: __ZNSt3__16vectorI4FaceNS_9allocatorIS1_EEED1B8ue170006Ev, symObjAddr: 0x4B14, symBinAddr: 0x100005A10, symSize: 0x2C }
  - { offsetInCU: 0x21ED6, offset: 0x21ED6, size: 0x8, addend: 0x0, symName: __ZNSt3__119basic_istringstreamIcNS_11char_traitsIcEENS_9allocatorIcEEED2Ev, symObjAddr: 0x4B40, symBinAddr: 0x100005A3C, symSize: 0x64 }
  - { offsetInCU: 0x21F10, offset: 0x21F10, size: 0x8, addend: 0x0, symName: __ZTv0_n24_NSt3__119basic_istringstreamIcNS_11char_traitsIcEENS_9allocatorIcEEED1Ev, symObjAddr: 0x4BA4, symBinAddr: 0x100005AA0, symSize: 0x28 }
  - { offsetInCU: 0x21F2C, offset: 0x21F2C, size: 0x8, addend: 0x0, symName: __ZNSt3__115basic_stringbufIcNS_11char_traitsIcEENS_9allocatorIcEEED1Ev, symObjAddr: 0x4BCC, symBinAddr: 0x100005AC8, symSize: 0x2C }
  - { offsetInCU: 0x21F59, offset: 0x21F59, size: 0x8, addend: 0x0, symName: __ZNSt3__115basic_stringbufIcNS_11char_traitsIcEENS_9allocatorIcEEED2Ev, symObjAddr: 0x4BF8, symBinAddr: 0x100005AF4, symSize: 0x48 }
  - { offsetInCU: 0x21F86, offset: 0x21F86, size: 0x8, addend: 0x0, symName: __ZNSt3__114basic_ifstreamIcNS_11char_traitsIcEEED2Ev, symObjAddr: 0x4C40, symBinAddr: 0x100005B3C, symSize: 0x64 }
  - { offsetInCU: 0x21FC0, offset: 0x21FC0, size: 0x8, addend: 0x0, symName: __ZTv0_n24_NSt3__114basic_ifstreamIcNS_11char_traitsIcEEED1Ev, symObjAddr: 0x4CA4, symBinAddr: 0x100005BA0, symSize: 0x28 }
  - { offsetInCU: 0x21FD7, offset: 0x21FD7, size: 0x8, addend: 0x0, symName: __ZNKSt3__111__wrap_iterIPK4FaceE4baseB8ue170006Ev, symObjAddr: 0x4D14, symBinAddr: 0x100005C10, symSize: 0x18 }
  - { offsetInCU: 0x21FFD, offset: 0x21FFD, size: 0x8, addend: 0x0, symName: __ZNKSt3__111__wrap_iterIP4FaceE4baseB8ue170006Ev, symObjAddr: 0x4D74, symBinAddr: 0x100005C70, symSize: 0x18 }
  - { offsetInCU: 0x22023, offset: 0x22023, size: 0x8, addend: 0x0, symName: __ZN3glm7tmat4x4IfLNS_9precisionE0EED2Ev, symObjAddr: 0x4D8C, symBinAddr: 0x100005C88, symSize: 0x64 }
  - { offsetInCU: 0x2204F, offset: 0x2204F, size: 0x8, addend: 0x0, symName: __ZN3glm5tvec4IfLNS_9precisionE0EED1Ev, symObjAddr: 0x4DF0, symBinAddr: 0x100005CEC, symSize: 0x2C }
  - { offsetInCU: 0x22079, offset: 0x22079, size: 0x8, addend: 0x0, symName: __ZN3glm5tvec4IfLNS_9precisionE0EED2Ev, symObjAddr: 0x4E1C, symBinAddr: 0x100005D18, symSize: 0x14 }
  - { offsetInCU: 0x220A3, offset: 0x220A3, size: 0x8, addend: 0x0, symName: __ZNSt3__112basic_stringIcNS_11char_traitsIcEENS_9allocatorIcEEEC2B8ue170006Ev, symObjAddr: 0x4E30, symBinAddr: 0x100005D2C, symSize: 0x48 }
  - { offsetInCU: 0x220D3, offset: 0x220D3, size: 0x8, addend: 0x0, symName: __ZNSt3__117__compressed_pairINS_12basic_stringIcNS_11char_traitsIcEENS_9allocatorIcEEE5__repES5_EC1B8ue170006INS_18__default_init_tagESA_EEOT_OT0_, symObjAddr: 0x4E78, symBinAddr: 0x100005D74, symSize: 0x3C }
  - { offsetInCU: 0x2212B, offset: 0x2212B, size: 0x8, addend: 0x0, symName: __ZNSt3__112basic_stringIcNS_11char_traitsIcEENS_9allocatorIcEEE14__default_initB8ue170006Ev, symObjAddr: 0x4EC0, symBinAddr: 0x100005DBC, symSize: 0x40 }
  - { offsetInCU: 0x22151, offset: 0x22151, size: 0x8, addend: 0x0, symName: __ZNSt3__117__compressed_pairINS_12basic_stringIcNS_11char_traitsIcEENS_9allocatorIcEEE5__repES5_EC2B8ue170006INS_18__default_init_tagESA_EEOT_OT0_, symObjAddr: 0x4F00, symBinAddr: 0x100005DFC, symSize: 0x3C }
  - { offsetInCU: 0x221A9, offset: 0x221A9, size: 0x8, addend: 0x0, symName: __ZNSt3__122__compressed_pair_elemINS_12basic_stringIcNS_11char_traitsIcEENS_9allocatorIcEEE5__repELi0ELb0EEC2B8ue170006ENS_18__default_init_tagE, symObjAddr: 0x4F3C, symBinAddr: 0x100005E38, symSize: 0x14 }
  - { offsetInCU: 0x221DD, offset: 0x221DD, size: 0x8, addend: 0x0, symName: __ZNSt3__122__compressed_pair_elemINS_9allocatorIcEELi1ELb1EEC2B8ue170006ENS_18__default_init_tagE, symObjAddr: 0x4F50, symBinAddr: 0x100005E4C, symSize: 0x2C }
  - { offsetInCU: 0x22211, offset: 0x22211, size: 0x8, addend: 0x0, symName: __ZNSt3__19allocatorIcEC2B8ue170006Ev, symObjAddr: 0x4F7C, symBinAddr: 0x100005E78, symSize: 0x2C }
  - { offsetInCU: 0x2223B, offset: 0x2223B, size: 0x8, addend: 0x0, symName: __ZNSt3__116__non_trivial_ifILb1ENS_9allocatorIcEEEC2B8ue170006Ev, symObjAddr: 0x4FA8, symBinAddr: 0x100005EA4, symSize: 0x14 }
  - { offsetInCU: 0x22265, offset: 0x22265, size: 0x8, addend: 0x0, symName: __ZNSt3__117__compressed_pairINS_12basic_stringIcNS_11char_traitsIcEENS_9allocatorIcEEE5__repES5_E5firstB8ue170006Ev, symObjAddr: 0x4FBC, symBinAddr: 0x100005EB8, symSize: 0x24 }
  - { offsetInCU: 0x2228B, offset: 0x2228B, size: 0x8, addend: 0x0, symName: __ZNSt3__122__compressed_pair_elemINS_12basic_stringIcNS_11char_traitsIcEENS_9allocatorIcEEE5__repELi0ELb0EE5__getB8ue170006Ev, symObjAddr: 0x4FE0, symBinAddr: 0x100005EDC, symSize: 0x14 }
  - { offsetInCU: 0x222B1, offset: 0x222B1, size: 0x8, addend: 0x0, symName: __ZNSt3__112basic_stringIcNS_11char_traitsIcEENS_9allocatorIcEEEC2B8ue170006ILi0EEEPKc, symObjAddr: 0x4FF4, symBinAddr: 0x100005EF0, symSize: 0x58 }
  - { offsetInCU: 0x222F0, offset: 0x222F0, size: 0x8, addend: 0x0, symName: __ZNSt3__111char_traitsIcE6lengthB8ue170006EPKc, symObjAddr: 0x504C, symBinAddr: 0x100005F48, symSize: 0x34 }
  - { offsetInCU: 0x22313, offset: 0x22313, size: 0x8, addend: 0x0, symName: __ZN3glm5tvec3IfLNS_9precisionE0EEC2ERKfS4_S4_, symObjAddr: 0x50A4, symBinAddr: 0x100005FA0, symSize: 0x44 }
  - { offsetInCU: 0x22369, offset: 0x22369, size: 0x8, addend: 0x0, symName: __ZNSt3__19basic_iosIcNS_11char_traitsIcEEEC2B8ue170006Ev, symObjAddr: 0x50E8, symBinAddr: 0x100005FE4, symSize: 0x44 }
  - { offsetInCU: 0x22393, offset: 0x22393, size: 0x8, addend: 0x0, symName: __ZNSt3__113basic_istreamIcNS_11char_traitsIcEEEC2B8ue170006EPNS_15basic_streambufIcS2_EE, symObjAddr: 0x512C, symBinAddr: 0x100006028, symSize: 0x64 }
  - { offsetInCU: 0x223D8, offset: 0x223D8, size: 0x8, addend: 0x0, symName: __ZNSt3__113basic_filebufIcNS_11char_traitsIcEEE4openERKNS_12basic_stringIcS2_NS_9allocatorIcEEEEj, symObjAddr: 0x5190, symBinAddr: 0x10000608C, symSize: 0x44 }
  - { offsetInCU: 0x2241C, offset: 0x2241C, size: 0x8, addend: 0x0, symName: __ZNSt3__19basic_iosIcNS_11char_traitsIcEEE8setstateB8ue170006Ej, symObjAddr: 0x51D4, symBinAddr: 0x1000060D0, symSize: 0x2C }
  - { offsetInCU: 0x22451, offset: 0x22451, size: 0x8, addend: 0x0, symName: __ZNSt3__18ios_baseC2B8ue170006Ev, symObjAddr: 0x5200, symBinAddr: 0x1000060FC, symSize: 0x24 }
  - { offsetInCU: 0x2247B, offset: 0x2247B, size: 0x8, addend: 0x0, symName: __ZNSt3__19basic_iosIcNS_11char_traitsIcEEE4initB8ue170006EPNS_15basic_streambufIcS2_EE, symObjAddr: 0x5224, symBinAddr: 0x100006120, symSize: 0x44 }
  - { offsetInCU: 0x224B2, offset: 0x224B2, size: 0x8, addend: 0x0, symName: __ZNSt3__111char_traitsIcE3eofB8ue170006Ev, symObjAddr: 0x5268, symBinAddr: 0x100006164, symSize: 0x8 }
  - { offsetInCU: 0x224C6, offset: 0x224C6, size: 0x8, addend: 0x0, symName: __ZNKSt3__112basic_stringIcNS_11char_traitsIcEENS_9allocatorIcEEE5c_strB8ue170006Ev, symObjAddr: 0x5270, symBinAddr: 0x10000616C, symSize: 0x24 }
  - { offsetInCU: 0x224EC, offset: 0x224EC, size: 0x8, addend: 0x0, symName: __ZNKSt3__112basic_stringIcNS_11char_traitsIcEENS_9allocatorIcEEE4dataB8ue170006Ev, symObjAddr: 0x5294, symBinAddr: 0x100006190, symSize: 0x28 }
  - { offsetInCU: 0x22512, offset: 0x22512, size: 0x8, addend: 0x0, symName: __ZNKSt3__112basic_stringIcNS_11char_traitsIcEENS_9allocatorIcEEE13__get_pointerB8ue170006Ev, symObjAddr: 0x52D0, symBinAddr: 0x1000061CC, symSize: 0x54 }
  - { offsetInCU: 0x22538, offset: 0x22538, size: 0x8, addend: 0x0, symName: __ZNKSt3__112basic_stringIcNS_11char_traitsIcEENS_9allocatorIcEEE9__is_longB8ue170006Ev, symObjAddr: 0x5324, symBinAddr: 0x100006220, symSize: 0x38 }
  - { offsetInCU: 0x2255E, offset: 0x2255E, size: 0x8, addend: 0x0, symName: __ZNKSt3__112basic_stringIcNS_11char_traitsIcEENS_9allocatorIcEEE18__get_long_pointerB8ue170006Ev, symObjAddr: 0x535C, symBinAddr: 0x100006258, symSize: 0x28 }
  - { offsetInCU: 0x22584, offset: 0x22584, size: 0x8, addend: 0x0, symName: __ZNKSt3__112basic_stringIcNS_11char_traitsIcEENS_9allocatorIcEEE19__get_short_pointerB8ue170006Ev, symObjAddr: 0x5384, symBinAddr: 0x100006280, symSize: 0x28 }
  - { offsetInCU: 0x225AA, offset: 0x225AA, size: 0x8, addend: 0x0, symName: __ZNKSt3__117__compressed_pairINS_12basic_stringIcNS_11char_traitsIcEENS_9allocatorIcEEE5__repES5_E5firstB8ue170006Ev, symObjAddr: 0x53AC, symBinAddr: 0x1000062A8, symSize: 0x24 }
  - { offsetInCU: 0x225D0, offset: 0x225D0, size: 0x8, addend: 0x0, symName: __ZNKSt3__122__compressed_pair_elemINS_12basic_stringIcNS_11char_traitsIcEENS_9allocatorIcEEE5__repELi0ELb0EE5__getB8ue170006Ev, symObjAddr: 0x53D0, symBinAddr: 0x1000062CC, symSize: 0x14 }
  - { offsetInCU: 0x225F6, offset: 0x225F6, size: 0x8, addend: 0x0, symName: __ZNSt3__114pointer_traitsIPKcE10pointer_toB8ue170006ERS1_, symObjAddr: 0x53E4, symBinAddr: 0x1000062E0, symSize: 0x14 }
  - { offsetInCU: 0x22619, offset: 0x22619, size: 0x8, addend: 0x0, symName: __ZNSt3__18ios_base8setstateB8ue170006Ej, symObjAddr: 0x53F8, symBinAddr: 0x1000062F4, symSize: 0x34 }
  - { offsetInCU: 0x22650, offset: 0x22650, size: 0x8, addend: 0x0, symName: __ZNKSt3__113basic_filebufIcNS_11char_traitsIcEEE7is_openEv, symObjAddr: 0x542C, symBinAddr: 0x100006328, symSize: 0x24 }
  - { offsetInCU: 0x22696, offset: 0x22696, size: 0x8, addend: 0x0, symName: __ZNKSt3__113basic_ostreamIcNS_11char_traitsIcEEE6sentrycvbB8ue170006Ev, symObjAddr: 0x563C, symBinAddr: 0x100006538, symSize: 0x1C }
  - { offsetInCU: 0x226BC, offset: 0x226BC, size: 0x8, addend: 0x0, symName: __ZNSt3__119ostreambuf_iteratorIcNS_11char_traitsIcEEEC1B8ue170006ERNS_13basic_ostreamIcS2_EE, symObjAddr: 0x5898, symBinAddr: 0x100006794, symSize: 0x34 }
  - { offsetInCU: 0x226F4, offset: 0x226F4, size: 0x8, addend: 0x0, symName: __ZNKSt3__18ios_base5flagsB8ue170006Ev, symObjAddr: 0x58CC, symBinAddr: 0x1000067C8, symSize: 0x18 }
  - { offsetInCU: 0x2271C, offset: 0x2271C, size: 0x8, addend: 0x0, symName: __ZNKSt3__19basic_iosIcNS_11char_traitsIcEEE4fillB8ue170006Ev, symObjAddr: 0x58E4, symBinAddr: 0x1000067E0, symSize: 0x64 }
  - { offsetInCU: 0x22744, offset: 0x22744, size: 0x8, addend: 0x0, symName: __ZNKSt3__119ostreambuf_iteratorIcNS_11char_traitsIcEEE6failedB8ue170006Ev, symObjAddr: 0x5948, symBinAddr: 0x100006844, symSize: 0x24 }
  - { offsetInCU: 0x2276A, offset: 0x2276A, size: 0x8, addend: 0x0, symName: __ZNKSt3__18ios_base5widthB8ue170006Ev, symObjAddr: 0x596C, symBinAddr: 0x100006868, symSize: 0x18 }
  - { offsetInCU: 0x22792, offset: 0x22792, size: 0x8, addend: 0x0, symName: __ZNSt3__115basic_streambufIcNS_11char_traitsIcEEE5sputnB8ue170006EPKcl, symObjAddr: 0x5984, symBinAddr: 0x100006880, symSize: 0x3C }
  - { offsetInCU: 0x227D4, offset: 0x227D4, size: 0x8, addend: 0x0, symName: __ZNSt3__112basic_stringIcNS_11char_traitsIcEENS_9allocatorIcEEEC1B8ue170006Emc, symObjAddr: 0x59C0, symBinAddr: 0x1000068BC, symSize: 0x3C }
  - { offsetInCU: 0x2281C, offset: 0x2281C, size: 0x8, addend: 0x0, symName: __ZNSt3__112basic_stringIcNS_11char_traitsIcEENS_9allocatorIcEEE4dataB8ue170006Ev, symObjAddr: 0x59FC, symBinAddr: 0x1000068F8, symSize: 0x28 }
  - { offsetInCU: 0x22842, offset: 0x22842, size: 0x8, addend: 0x0, symName: __ZNSt3__18ios_base5widthB8ue170006El, symObjAddr: 0x5A24, symBinAddr: 0x100006920, symSize: 0x2C }
  - { offsetInCU: 0x22888, offset: 0x22888, size: 0x8, addend: 0x0, symName: __ZNSt3__112basic_stringIcNS_11char_traitsIcEENS_9allocatorIcEEEC2B8ue170006Emc, symObjAddr: 0x5A50, symBinAddr: 0x10000694C, symSize: 0x4C }
  - { offsetInCU: 0x228D0, offset: 0x228D0, size: 0x8, addend: 0x0, symName: __ZNSt3__112basic_stringIcNS_11char_traitsIcEENS_9allocatorIcEEE13__get_pointerB8ue170006Ev, symObjAddr: 0x5AB0, symBinAddr: 0x1000069AC, symSize: 0x54 }
  - { offsetInCU: 0x228F6, offset: 0x228F6, size: 0x8, addend: 0x0, symName: __ZNSt3__112basic_stringIcNS_11char_traitsIcEENS_9allocatorIcEEE18__get_long_pointerB8ue170006Ev, symObjAddr: 0x5B04, symBinAddr: 0x100006A00, symSize: 0x28 }
  - { offsetInCU: 0x2291C, offset: 0x2291C, size: 0x8, addend: 0x0, symName: __ZNSt3__112basic_stringIcNS_11char_traitsIcEENS_9allocatorIcEEE19__get_short_pointerB8ue170006Ev, symObjAddr: 0x5B2C, symBinAddr: 0x100006A28, symSize: 0x28 }
  - { offsetInCU: 0x22942, offset: 0x22942, size: 0x8, addend: 0x0, symName: __ZNSt3__114pointer_traitsIPcE10pointer_toB8ue170006ERc, symObjAddr: 0x5B54, symBinAddr: 0x100006A50, symSize: 0x14 }
  - { offsetInCU: 0x22965, offset: 0x22965, size: 0x8, addend: 0x0, symName: __ZNSt3__119ostreambuf_iteratorIcNS_11char_traitsIcEEEC2B8ue170006ERNS_13basic_ostreamIcS2_EE, symObjAddr: 0x5B68, symBinAddr: 0x100006A64, symSize: 0x54 }
  - { offsetInCU: 0x2299D, offset: 0x2299D, size: 0x8, addend: 0x0, symName: __ZNKSt3__19basic_iosIcNS_11char_traitsIcEEE5rdbufB8ue170006Ev, symObjAddr: 0x5BBC, symBinAddr: 0x100006AB8, symSize: 0x24 }
  - { offsetInCU: 0x229C5, offset: 0x229C5, size: 0x8, addend: 0x0, symName: __ZNKSt3__18ios_base5rdbufB8ue170006Ev, symObjAddr: 0x5BE0, symBinAddr: 0x100006ADC, symSize: 0x18 }
  - { offsetInCU: 0x229EB, offset: 0x229EB, size: 0x8, addend: 0x0, symName: __ZNSt3__111char_traitsIcE11eq_int_typeB8ue170006Eii, symObjAddr: 0x5BF8, symBinAddr: 0x100006AF4, symSize: 0x28 }
  - { offsetInCU: 0x22A1E, offset: 0x22A1E, size: 0x8, addend: 0x0, symName: __ZNKSt3__19basic_iosIcNS_11char_traitsIcEEE5widenB8ue170006Ec, symObjAddr: 0x5C20, symBinAddr: 0x100006B1C, symSize: 0x84 }
  - { offsetInCU: 0x22A7D, offset: 0x22A7D, size: 0x8, addend: 0x0, symName: __ZNKSt3__15ctypeIcE5widenB8ue170006Ec, symObjAddr: 0x5CD0, symBinAddr: 0x100006BCC, symSize: 0x38 }
  - { offsetInCU: 0x22AB2, offset: 0x22AB2, size: 0x8, addend: 0x0, symName: __ZNKSt3__112basic_stringIcNS_11char_traitsIcEENS_9allocatorIcEEE4sizeB8ue170006Ev, symObjAddr: 0x5D08, symBinAddr: 0x100006C04, symSize: 0x54 }
  - { offsetInCU: 0x22AD8, offset: 0x22AD8, size: 0x8, addend: 0x0, symName: __ZNKSt3__112basic_stringIcNS_11char_traitsIcEENS_9allocatorIcEEE15__get_long_sizeB8ue170006Ev, symObjAddr: 0x5D5C, symBinAddr: 0x100006C58, symSize: 0x28 }
  - { offsetInCU: 0x22AFE, offset: 0x22AFE, size: 0x8, addend: 0x0, symName: __ZNKSt3__112basic_stringIcNS_11char_traitsIcEENS_9allocatorIcEEE16__get_short_sizeB8ue170006Ev, symObjAddr: 0x5D84, symBinAddr: 0x100006C80, symSize: 0x34 }
  - { offsetInCU: 0x22B42, offset: 0x22B42, size: 0x8, addend: 0x0, symName: __ZNKSt3__113basic_istreamIcNS_11char_traitsIcEEE6sentrycvbB8ue170006Ev, symObjAddr: 0x5FF0, symBinAddr: 0x100006EEC, symSize: 0x1C }
  - { offsetInCU: 0x22B68, offset: 0x22B68, size: 0x8, addend: 0x0, symName: __ZNSt3__112basic_stringIcNS_11char_traitsIcEENS_9allocatorIcEEE5clearB8ue170006Ev, symObjAddr: 0x600C, symBinAddr: 0x100006F08, symSize: 0x78 }
  - { offsetInCU: 0x22B90, offset: 0x22B90, size: 0x8, addend: 0x0, symName: __ZNSt3__115basic_streambufIcNS_11char_traitsIcEEE6sbumpcB8ue170006Ev, symObjAddr: 0x6084, symBinAddr: 0x100006F80, symSize: 0x78 }
  - { offsetInCU: 0x22BB6, offset: 0x22BB6, size: 0x8, addend: 0x0, symName: __ZNSt3__111char_traitsIcE12to_char_typeB8ue170006Ei, symObjAddr: 0x60FC, symBinAddr: 0x100006FF8, symSize: 0x18 }
  - { offsetInCU: 0x22BD9, offset: 0x22BD9, size: 0x8, addend: 0x0, symName: __ZNSt3__111char_traitsIcE2eqEcc, symObjAddr: 0x6114, symBinAddr: 0x100007010, symSize: 0x28 }
  - { offsetInCU: 0x22C0A, offset: 0x22C0A, size: 0x8, addend: 0x0, symName: __ZNKSt3__112basic_stringIcNS_11char_traitsIcEENS_9allocatorIcEEE8max_sizeB8ue170006Ev, symObjAddr: 0x613C, symBinAddr: 0x100007038, symSize: 0xAC }
  - { offsetInCU: 0x22C5C, offset: 0x22C5C, size: 0x8, addend: 0x0, symName: __ZNSt3__18ios_base18__setstate_nothrowB8ue170006Ej, symObjAddr: 0x61E8, symBinAddr: 0x1000070E4, symSize: 0x64 }
  - { offsetInCU: 0x22C91, offset: 0x22C91, size: 0x8, addend: 0x0, symName: __ZNKSt3__19basic_iosIcNS_11char_traitsIcEEE10exceptionsB8ue170006Ev, symObjAddr: 0x624C, symBinAddr: 0x100007148, symSize: 0x24 }
  - { offsetInCU: 0x22CB7, offset: 0x22CB7, size: 0x8, addend: 0x0, symName: __ZNSt3__111char_traitsIcE6assignB8ue170006ERcRKc, symObjAddr: 0x6270, symBinAddr: 0x10000716C, symSize: 0x24 }
  - { offsetInCU: 0x22CE8, offset: 0x22CE8, size: 0x8, addend: 0x0, symName: __ZNSt3__112basic_stringIcNS_11char_traitsIcEENS_9allocatorIcEEE15__set_long_sizeB8ue170006Em, symObjAddr: 0x6294, symBinAddr: 0x100007190, symSize: 0x38 }
  - { offsetInCU: 0x22D1D, offset: 0x22D1D, size: 0x8, addend: 0x0, symName: __ZNSt3__112basic_stringIcNS_11char_traitsIcEENS_9allocatorIcEEE16__set_short_sizeB8ue170006Em, symObjAddr: 0x62CC, symBinAddr: 0x1000071C8, symSize: 0x78 }
  - { offsetInCU: 0x22D52, offset: 0x22D52, size: 0x8, addend: 0x0, symName: __ZNSt3__111char_traitsIcE11to_int_typeB8ue170006Ec, symObjAddr: 0x6344, symBinAddr: 0x100007240, symSize: 0x14 }
  - { offsetInCU: 0x22D80, offset: 0x22D80, size: 0x8, addend: 0x0, symName: __ZNSt3__116allocator_traitsINS_9allocatorIcEEE8max_sizeB8ue170006IS2_vEEmRKS2_, symObjAddr: 0x6358, symBinAddr: 0x100007254, symSize: 0x24 }
  - { offsetInCU: 0x22DAE, offset: 0x22DAE, size: 0x8, addend: 0x0, symName: __ZNKSt3__112basic_stringIcNS_11char_traitsIcEENS_9allocatorIcEEE7__allocB8ue170006Ev, symObjAddr: 0x637C, symBinAddr: 0x100007278, symSize: 0x24 }
  - { offsetInCU: 0x22DD4, offset: 0x22DD4, size: 0x8, addend: 0x0, symName: __ZNSt3__114numeric_limitsImE3maxB8ue170006Ev, symObjAddr: 0x63A0, symBinAddr: 0x10000729C, symSize: 0x14 }
  - { offsetInCU: 0x22DE8, offset: 0x22DE8, size: 0x8, addend: 0x0, symName: __ZNKSt3__19allocatorIcE8max_sizeB8ue170006Ev, symObjAddr: 0x63B4, symBinAddr: 0x1000072B0, symSize: 0x14 }
  - { offsetInCU: 0x22E0E, offset: 0x22E0E, size: 0x8, addend: 0x0, symName: __ZNKSt3__117__compressed_pairINS_12basic_stringIcNS_11char_traitsIcEENS_9allocatorIcEEE5__repES5_E6secondB8ue170006Ev, symObjAddr: 0x63C8, symBinAddr: 0x1000072C4, symSize: 0x24 }
  - { offsetInCU: 0x22E34, offset: 0x22E34, size: 0x8, addend: 0x0, symName: __ZNKSt3__122__compressed_pair_elemINS_9allocatorIcEELi1ELb1EE5__getB8ue170006Ev, symObjAddr: 0x63EC, symBinAddr: 0x1000072E8, symSize: 0x14 }
  - { offsetInCU: 0x22E5A, offset: 0x22E5A, size: 0x8, addend: 0x0, symName: __ZNSt3__123__libcpp_numeric_limitsImLb1EE3maxB8ue170006Ev, symObjAddr: 0x6400, symBinAddr: 0x1000072FC, symSize: 0x8 }
  - { offsetInCU: 0x22E6E, offset: 0x22E6E, size: 0x8, addend: 0x0, symName: __ZNKSt3__18ios_base10exceptionsB8ue170006Ev, symObjAddr: 0x6408, symBinAddr: 0x100007304, symSize: 0x18 }
  - { offsetInCU: 0x22E96, offset: 0x22E96, size: 0x8, addend: 0x0, symName: __ZNKSt3__19basic_iosIcNS_11char_traitsIcEEE4failB8ue170006Ev, symObjAddr: 0x6420, symBinAddr: 0x10000731C, symSize: 0x28 }
  - { offsetInCU: 0x22EBC, offset: 0x22EBC, size: 0x8, addend: 0x0, symName: __ZNKSt3__18ios_base4failB8ue170006Ev, symObjAddr: 0x6448, symBinAddr: 0x100007344, symSize: 0x28 }
  - { offsetInCU: 0x22EE4, offset: 0x22EE4, size: 0x8, addend: 0x0, symName: __ZNSt3__115basic_stringbufIcNS_11char_traitsIcEENS_9allocatorIcEEEC1B8ue170006ERKNS_12basic_stringIcS2_S4_EEj, symObjAddr: 0x6470, symBinAddr: 0x10000736C, symSize: 0x3C }
  - { offsetInCU: 0x22F2C, offset: 0x22F2C, size: 0x8, addend: 0x0, symName: __ZNSt3__115basic_stringbufIcNS_11char_traitsIcEENS_9allocatorIcEEEC2B8ue170006ERKNS_12basic_stringIcS2_S4_EEj, symObjAddr: 0x64AC, symBinAddr: 0x1000073A8, symSize: 0xB4 }
  - { offsetInCU: 0x22F74, offset: 0x22F74, size: 0x8, addend: 0x0, symName: __ZNKSt3__112basic_stringIcNS_11char_traitsIcEENS_9allocatorIcEEE13get_allocatorB8ue170006Ev, symObjAddr: 0x6560, symBinAddr: 0x10000745C, symSize: 0x24 }
  - { offsetInCU: 0x22F9A, offset: 0x22F9A, size: 0x8, addend: 0x0, symName: __ZNSt3__112basic_stringIcNS_11char_traitsIcEENS_9allocatorIcEEEC1B8ue170006ERKS4_, symObjAddr: 0x6584, symBinAddr: 0x100007480, symSize: 0x34 }
  - { offsetInCU: 0x22FD3, offset: 0x22FD3, size: 0x8, addend: 0x0, symName: __ZNSt3__112basic_stringIcNS_11char_traitsIcEENS_9allocatorIcEEEC2B8ue170006ERKS4_, symObjAddr: 0x65B8, symBinAddr: 0x1000074B4, symSize: 0x48 }
  - { offsetInCU: 0x2300C, offset: 0x2300C, size: 0x8, addend: 0x0, symName: __ZNSt3__117__compressed_pairINS_12basic_stringIcNS_11char_traitsIcEENS_9allocatorIcEEE5__repES5_EC1B8ue170006INS_18__default_init_tagERKS5_EEOT_OT0_, symObjAddr: 0x6600, symBinAddr: 0x1000074FC, symSize: 0x3C }
  - { offsetInCU: 0x23064, offset: 0x23064, size: 0x8, addend: 0x0, symName: __ZNSt3__117__compressed_pairINS_12basic_stringIcNS_11char_traitsIcEENS_9allocatorIcEEE5__repES5_EC2B8ue170006INS_18__default_init_tagERKS5_EEOT_OT0_, symObjAddr: 0x663C, symBinAddr: 0x100007538, symSize: 0x40 }
  - { offsetInCU: 0x230BC, offset: 0x230BC, size: 0x8, addend: 0x0, symName: __ZNSt3__122__compressed_pair_elemINS_9allocatorIcEELi1ELb1EEC2B8ue170006IRKS2_vEEOT_, symObjAddr: 0x667C, symBinAddr: 0x100007578, symSize: 0x18 }
  - { offsetInCU: 0x230FE, offset: 0x230FE, size: 0x8, addend: 0x0, symName: __ZNSt3__114numeric_limitsIlE3maxB8ue170006Ev, symObjAddr: 0x6694, symBinAddr: 0x100007590, symSize: 0x14 }
  - { offsetInCU: 0x23112, offset: 0x23112, size: 0x8, addend: 0x0, symName: __ZNSt3__115basic_streambufIcNS_11char_traitsIcEEE5sgetcB8ue170006Ev, symObjAddr: 0x66A8, symBinAddr: 0x1000075A4, symSize: 0x70 }
  - { offsetInCU: 0x23138, offset: 0x23138, size: 0x8, addend: 0x0, symName: __ZNKSt3__15ctypeIcE2isB8ue170006Ejc, symObjAddr: 0x6718, symBinAddr: 0x100007614, symSize: 0x7C }
  - { offsetInCU: 0x2317C, offset: 0x2317C, size: 0x8, addend: 0x0, symName: __ZNSt3__123__libcpp_numeric_limitsIlLb1EE3maxB8ue170006Ev, symObjAddr: 0x6794, symBinAddr: 0x100007690, symSize: 0x8 }
  - { offsetInCU: 0x2318F, offset: 0x2318F, size: 0x8, addend: 0x0, symName: __Z7isasciii, symObjAddr: 0x679C, symBinAddr: 0x100007698, symSize: 0x24 }
  - { offsetInCU: 0x231BC, offset: 0x231BC, size: 0x8, addend: 0x0, symName: __ZNSt3__16vectorI6VertexNS_9allocatorIS1_EEE9__end_capB8ue170006Ev, symObjAddr: 0x67C0, symBinAddr: 0x1000076BC, symSize: 0x28 }
  - { offsetInCU: 0x231E2, offset: 0x231E2, size: 0x8, addend: 0x0, symName: __ZNSt3__16vectorI6VertexNS_9allocatorIS1_EEE22__construct_one_at_endB8ue170006IJRKS1_EEEvDpOT_, symObjAddr: 0x67E8, symBinAddr: 0x1000076E4, symSize: 0x90 }
  - { offsetInCU: 0x23231, offset: 0x23231, size: 0x8, addend: 0x0, symName: __ZNSt3__16vectorI6VertexNS_9allocatorIS1_EEE21__push_back_slow_pathIRKS1_EEvOT_, symObjAddr: 0x6878, symBinAddr: 0x100007774, symSize: 0xD8 }
  - { offsetInCU: 0x2328F, offset: 0x2328F, size: 0x8, addend: 0x0, symName: __ZNSt3__117__compressed_pairIP6VertexNS_9allocatorIS1_EEE5firstB8ue170006Ev, symObjAddr: 0x6950, symBinAddr: 0x10000784C, symSize: 0x24 }
  - { offsetInCU: 0x232B5, offset: 0x232B5, size: 0x8, addend: 0x0, symName: __ZNSt3__122__compressed_pair_elemIP6VertexLi0ELb0EE5__getB8ue170006Ev, symObjAddr: 0x6974, symBinAddr: 0x100007870, symSize: 0x14 }
  - { offsetInCU: 0x232F4, offset: 0x232F4, size: 0x8, addend: 0x0, symName: __ZNSt3__16vectorI6VertexNS_9allocatorIS1_EEE21_ConstructTransactionC1B8ue170006ERS4_m, symObjAddr: 0x6988, symBinAddr: 0x100007884, symSize: 0x3C }
  - { offsetInCU: 0x2333C, offset: 0x2333C, size: 0x8, addend: 0x0, symName: __ZNSt3__116allocator_traitsINS_9allocatorI6VertexEEE9constructB8ue170006IS2_JRKS2_EvEEvRS3_PT_DpOT0_, symObjAddr: 0x69C4, symBinAddr: 0x1000078C0, symSize: 0x34 }
  - { offsetInCU: 0x23393, offset: 0x23393, size: 0x8, addend: 0x0, symName: __ZNSt3__16vectorI6VertexNS_9allocatorIS1_EEE7__allocB8ue170006Ev, symObjAddr: 0x69F8, symBinAddr: 0x1000078F4, symSize: 0x28 }
  - { offsetInCU: 0x233B9, offset: 0x233B9, size: 0x8, addend: 0x0, symName: __ZNSt3__16vectorI6VertexNS_9allocatorIS1_EEE21_ConstructTransactionD1B8ue170006Ev, symObjAddr: 0x6A34, symBinAddr: 0x100007930, symSize: 0x2C }
  - { offsetInCU: 0x233E3, offset: 0x233E3, size: 0x8, addend: 0x0, symName: __ZNSt3__16vectorI6VertexNS_9allocatorIS1_EEE21_ConstructTransactionC2B8ue170006ERS4_m, symObjAddr: 0x6A60, symBinAddr: 0x10000795C, symSize: 0x4C }
  - { offsetInCU: 0x2342B, offset: 0x2342B, size: 0x8, addend: 0x0, symName: __ZNSt3__19allocatorI6VertexE9constructB8ue170006IS1_JRKS1_EEEvPT_DpOT0_, symObjAddr: 0x6AAC, symBinAddr: 0x1000079A8, symSize: 0x30 }
  - { offsetInCU: 0x23481, offset: 0x23481, size: 0x8, addend: 0x0, symName: __ZNSt3__117__compressed_pairIP6VertexNS_9allocatorIS1_EEE6secondB8ue170006Ev, symObjAddr: 0x6ADC, symBinAddr: 0x1000079D8, symSize: 0x24 }
  - { offsetInCU: 0x234A7, offset: 0x234A7, size: 0x8, addend: 0x0, symName: __ZNSt3__122__compressed_pair_elemINS_9allocatorI6VertexEELi1ELb1EE5__getB8ue170006Ev, symObjAddr: 0x6B00, symBinAddr: 0x1000079FC, symSize: 0x14 }
  - { offsetInCU: 0x234CD, offset: 0x234CD, size: 0x8, addend: 0x0, symName: __ZNSt3__16vectorI6VertexNS_9allocatorIS1_EEE21_ConstructTransactionD2B8ue170006Ev, symObjAddr: 0x6B14, symBinAddr: 0x100007A10, symSize: 0x20 }
  - { offsetInCU: 0x234F7, offset: 0x234F7, size: 0x8, addend: 0x0, symName: __ZNKSt3__16vectorI6VertexNS_9allocatorIS1_EEE11__recommendB8ue170006Em, symObjAddr: 0x6B34, symBinAddr: 0x100007A30, symSize: 0xB4 }
  - { offsetInCU: 0x2354C, offset: 0x2354C, size: 0x8, addend: 0x0, symName: __ZNSt3__114__split_bufferI6VertexRNS_9allocatorIS1_EEEC1EmmS4_, symObjAddr: 0x6BE8, symBinAddr: 0x100007AE4, symSize: 0x44 }
  - { offsetInCU: 0x235A2, offset: 0x235A2, size: 0x8, addend: 0x0, symName: __ZNSt3__114__split_bufferI6VertexRNS_9allocatorIS1_EEED1Ev, symObjAddr: 0x6D3C, symBinAddr: 0x100007C38, symSize: 0x2C }
  - { offsetInCU: 0x235CE, offset: 0x235CE, size: 0x8, addend: 0x0, symName: __ZNKSt3__16vectorI6VertexNS_9allocatorIS1_EEE8max_sizeEv, symObjAddr: 0x6D68, symBinAddr: 0x100007C64, symSize: 0x60 }
  - { offsetInCU: 0x235F6, offset: 0x235F6, size: 0x8, addend: 0x0, symName: __ZNKSt3__16vectorI6VertexNS_9allocatorIS1_EEE20__throw_length_errorB8ue170006Ev, symObjAddr: 0x6DC8, symBinAddr: 0x100007CC4, symSize: 0x1C }
  - { offsetInCU: 0x2361C, offset: 0x2361C, size: 0x8, addend: 0x0, symName: __ZNKSt3__16vectorI6VertexNS_9allocatorIS1_EEE8capacityB8ue170006Ev, symObjAddr: 0x6DE4, symBinAddr: 0x100007CE0, symSize: 0x40 }
  - { offsetInCU: 0x2364C, offset: 0x2364C, size: 0x8, addend: 0x0, symName: __ZNSt3__116allocator_traitsINS_9allocatorI6VertexEEE8max_sizeB8ue170006IS3_vEEmRKS3_, symObjAddr: 0x6E7C, symBinAddr: 0x100007D78, symSize: 0x24 }
  - { offsetInCU: 0x2367A, offset: 0x2367A, size: 0x8, addend: 0x0, symName: __ZNKSt3__16vectorI6VertexNS_9allocatorIS1_EEE7__allocB8ue170006Ev, symObjAddr: 0x6EA0, symBinAddr: 0x100007D9C, symSize: 0x28 }
  - { offsetInCU: 0x236B4, offset: 0x236B4, size: 0x8, addend: 0x0, symName: __ZNKSt3__16__lessIvvEclB8ue170006ImmEEbRKT_RKT0_, symObjAddr: 0x6F1C, symBinAddr: 0x100007E18, symSize: 0x34 }
  - { offsetInCU: 0x23708, offset: 0x23708, size: 0x8, addend: 0x0, symName: __ZNKSt3__19allocatorI6VertexE8max_sizeB8ue170006Ev, symObjAddr: 0x6F50, symBinAddr: 0x100007E4C, symSize: 0x18 }
  - { offsetInCU: 0x2372E, offset: 0x2372E, size: 0x8, addend: 0x0, symName: __ZNKSt3__117__compressed_pairIP6VertexNS_9allocatorIS1_EEE6secondB8ue170006Ev, symObjAddr: 0x6F68, symBinAddr: 0x100007E64, symSize: 0x24 }
  - { offsetInCU: 0x23754, offset: 0x23754, size: 0x8, addend: 0x0, symName: __ZNKSt3__122__compressed_pair_elemINS_9allocatorI6VertexEELi1ELb1EE5__getB8ue170006Ev, symObjAddr: 0x6F8C, symBinAddr: 0x100007E88, symSize: 0x14 }
  - { offsetInCU: 0x2377A, offset: 0x2377A, size: 0x8, addend: 0x0, symName: __ZNSt12length_errorC1B8ue170006EPKc, symObjAddr: 0x7004, symBinAddr: 0x100007F00, symSize: 0x34 }
  - { offsetInCU: 0x237B2, offset: 0x237B2, size: 0x8, addend: 0x0, symName: __ZNSt12length_errorC2B8ue170006EPKc, symObjAddr: 0x7038, symBinAddr: 0x100007F34, symSize: 0x4C }
  - { offsetInCU: 0x237EA, offset: 0x237EA, size: 0x8, addend: 0x0, symName: __ZNKSt3__16vectorI6VertexNS_9allocatorIS1_EEE9__end_capB8ue170006Ev, symObjAddr: 0x7084, symBinAddr: 0x100007F80, symSize: 0x28 }
  - { offsetInCU: 0x23810, offset: 0x23810, size: 0x8, addend: 0x0, symName: __ZNKSt3__117__compressed_pairIP6VertexNS_9allocatorIS1_EEE5firstB8ue170006Ev, symObjAddr: 0x70AC, symBinAddr: 0x100007FA8, symSize: 0x24 }
  - { offsetInCU: 0x23836, offset: 0x23836, size: 0x8, addend: 0x0, symName: __ZNKSt3__122__compressed_pair_elemIP6VertexLi0ELb0EE5__getB8ue170006Ev, symObjAddr: 0x70D0, symBinAddr: 0x100007FCC, symSize: 0x14 }
  - { offsetInCU: 0x2385C, offset: 0x2385C, size: 0x8, addend: 0x0, symName: __ZNSt3__114__split_bufferI6VertexRNS_9allocatorIS1_EEEC2EmmS4_, symObjAddr: 0x7138, symBinAddr: 0x100008034, symSize: 0xE0 }
  - { offsetInCU: 0x238D5, offset: 0x238D5, size: 0x8, addend: 0x0, symName: __ZNSt3__117__compressed_pairIP6VertexRNS_9allocatorIS1_EEEC1B8ue170006IDnS5_EEOT_OT0_, symObjAddr: 0x7218, symBinAddr: 0x100008114, symSize: 0x3C }
  - { offsetInCU: 0x2392D, offset: 0x2392D, size: 0x8, addend: 0x0, symName: __ZNSt3__114__split_bufferI6VertexRNS_9allocatorIS1_EEE7__allocB8ue170006Ev, symObjAddr: 0x7294, symBinAddr: 0x100008190, symSize: 0x28 }
  - { offsetInCU: 0x23953, offset: 0x23953, size: 0x8, addend: 0x0, symName: __ZNSt3__114__split_bufferI6VertexRNS_9allocatorIS1_EEE9__end_capB8ue170006Ev, symObjAddr: 0x72BC, symBinAddr: 0x1000081B8, symSize: 0x28 }
  - { offsetInCU: 0x23979, offset: 0x23979, size: 0x8, addend: 0x0, symName: __ZNSt3__117__compressed_pairIP6VertexRNS_9allocatorIS1_EEEC2B8ue170006IDnS5_EEOT_OT0_, symObjAddr: 0x72E4, symBinAddr: 0x1000081E0, symSize: 0x48 }
  - { offsetInCU: 0x239D1, offset: 0x239D1, size: 0x8, addend: 0x0, symName: __ZNSt3__122__compressed_pair_elemIP6VertexLi0ELb0EEC2B8ue170006IDnvEEOT_, symObjAddr: 0x732C, symBinAddr: 0x100008228, symSize: 0x1C }
  - { offsetInCU: 0x23A13, offset: 0x23A13, size: 0x8, addend: 0x0, symName: __ZNSt3__122__compressed_pair_elemIRNS_9allocatorI6VertexEELi1ELb0EEC2B8ue170006IS4_vEEOT_, symObjAddr: 0x7348, symBinAddr: 0x100008244, symSize: 0x20 }
  - { offsetInCU: 0x23A55, offset: 0x23A55, size: 0x8, addend: 0x0, symName: __ZNSt3__19allocatorI6VertexE8allocateB8ue170006Em, symObjAddr: 0x7368, symBinAddr: 0x100008264, symSize: 0x5C }
  - { offsetInCU: 0x23A89, offset: 0x23A89, size: 0x8, addend: 0x0, symName: __ZNSt3__117__compressed_pairIP6VertexRNS_9allocatorIS1_EEE6secondB8ue170006Ev, symObjAddr: 0x74C8, symBinAddr: 0x1000083C4, symSize: 0x28 }
  - { offsetInCU: 0x23AAF, offset: 0x23AAF, size: 0x8, addend: 0x0, symName: __ZNSt3__122__compressed_pair_elemIRNS_9allocatorI6VertexEELi1ELb0EE5__getB8ue170006Ev, symObjAddr: 0x74F0, symBinAddr: 0x1000083EC, symSize: 0x18 }
  - { offsetInCU: 0x23AD5, offset: 0x23AD5, size: 0x8, addend: 0x0, symName: __ZNSt3__117__compressed_pairIP6VertexRNS_9allocatorIS1_EEE5firstB8ue170006Ev, symObjAddr: 0x7508, symBinAddr: 0x100008404, symSize: 0x24 }
  - { offsetInCU: 0x23AFB, offset: 0x23AFB, size: 0x8, addend: 0x0, symName: __ZNKSt3__16vectorI6VertexNS_9allocatorIS1_EEE17__annotate_deleteB8ue170006Ev, symObjAddr: 0x752C, symBinAddr: 0x100008428, symSize: 0xD4 }
  - { offsetInCU: 0x23B21, offset: 0x23B21, size: 0x8, addend: 0x0, symName: __ZNSt3__116reverse_iteratorIP6VertexEC1B8ue170006ES2_, symObjAddr: 0x7678, symBinAddr: 0x100008574, symSize: 0x34 }
  - { offsetInCU: 0x23B59, offset: 0x23B59, size: 0x8, addend: 0x0, symName: __ZNKSt3__116reverse_iteratorIP6VertexE4baseB8ue170006Ev, symObjAddr: 0x76AC, symBinAddr: 0x1000085A8, symSize: 0x18 }
  - { offsetInCU: 0x23B7F, offset: 0x23B7F, size: 0x8, addend: 0x0, symName: __ZNKSt3__16vectorI6VertexNS_9allocatorIS1_EEE14__annotate_newB8ue170006Em, symObjAddr: 0x7700, symBinAddr: 0x1000085FC, symSize: 0xC8 }
  - { offsetInCU: 0x23BB4, offset: 0x23BB4, size: 0x8, addend: 0x0, symName: __ZNKSt3__16vectorI6VertexNS_9allocatorIS1_EEE31__annotate_contiguous_containerB8ue170006EPKvS6_S6_S6_, symObjAddr: 0x77C8, symBinAddr: 0x1000086C4, symSize: 0x20 }
  - { offsetInCU: 0x23C06, offset: 0x23C06, size: 0x8, addend: 0x0, symName: __ZNKSt3__16vectorI6VertexNS_9allocatorIS1_EEE4dataB8ue170006Ev, symObjAddr: 0x77E8, symBinAddr: 0x1000086E4, symSize: 0x28 }
  - { offsetInCU: 0x23C50, offset: 0x23C50, size: 0x8, addend: 0x0, symName: __ZNKSt3__111__move_loopINS_17_ClassicAlgPolicyEEclB8ue170006INS_16reverse_iteratorIP6VertexEES7_S7_EENS_4pairIT_T1_EES9_T0_SA_, symObjAddr: 0x7B00, symBinAddr: 0x1000089FC, symSize: 0xA8 }
  - { offsetInCU: 0x23CC1, offset: 0x23CC1, size: 0x8, addend: 0x0, symName: __ZNSt3__18_IterOpsINS_17_ClassicAlgPolicyEE11__iter_moveB8ue170006IRNS_16reverse_iteratorIP6VertexEEEENS_9enable_ifIXsr12is_referenceIDTdeclsr3stdE7declvalIRT_EEEEE5valueEDTclsr3stdE4movedeclsr3stdE7declvalISB_EEEEE4typeEOSA_, symObjAddr: 0x7D3C, symBinAddr: 0x100008C38, symSize: 0x28 }
  - { offsetInCU: 0x23CED, offset: 0x23CED, size: 0x8, addend: 0x0, symName: __ZNKSt3__116reverse_iteratorIP6VertexEdeB8ue170006Ev, symObjAddr: 0x7D64, symBinAddr: 0x100008C60, symSize: 0x28 }
  - { offsetInCU: 0x23D21, offset: 0x23D21, size: 0x8, addend: 0x0, symName: __ZNSt3__116reverse_iteratorIP6VertexEppB8ue170006Ev, symObjAddr: 0x7D8C, symBinAddr: 0x100008C88, symSize: 0x20 }
  - { offsetInCU: 0x23D47, offset: 0x23D47, size: 0x8, addend: 0x0, symName: __ZNSt3__18_IterOpsINS_17_ClassicAlgPolicyEE25__validate_iter_referenceB8ue170006IRNS_16reverse_iteratorIP6VertexEEEEvv, symObjAddr: 0x7DAC, symBinAddr: 0x100008CA8, symSize: 0x4 }
  - { offsetInCU: 0x23D65, offset: 0x23D65, size: 0x8, addend: 0x0, symName: __ZNSt3__118__unwrap_iter_implINS_16reverse_iteratorIP6VertexEELb0EE8__unwrapB8ue170006ES4_, symObjAddr: 0x7DB0, symBinAddr: 0x100008CAC, symSize: 0x24 }
  - { offsetInCU: 0x23D8E, offset: 0x23D8E, size: 0x8, addend: 0x0, symName: __ZNSt3__14pairINS_16reverse_iteratorIP6VertexEES4_EC1B8ue170006IS4_S4_LPv0EEEOT_OT0_, symObjAddr: 0x7DD4, symBinAddr: 0x100008CD0, symSize: 0x3C }
  - { offsetInCU: 0x23DEC, offset: 0x23DEC, size: 0x8, addend: 0x0, symName: __ZNSt3__14pairINS_16reverse_iteratorIP6VertexEES4_EC2B8ue170006IS4_S4_LPv0EEEOT_OT0_, symObjAddr: 0x7E10, symBinAddr: 0x100008D0C, symSize: 0x34 }
  - { offsetInCU: 0x23E4A, offset: 0x23E4A, size: 0x8, addend: 0x0, symName: __ZNSt3__118__unwrap_iter_implINS_16reverse_iteratorIP6VertexEELb0EE8__rewrapB8ue170006ES4_S4_, symObjAddr: 0x7E44, symBinAddr: 0x100008D40, symSize: 0x2C }
  - { offsetInCU: 0x23E77, offset: 0x23E77, size: 0x8, addend: 0x0, symName: __ZNSt3__116reverse_iteratorIP6VertexEC2B8ue170006ES2_, symObjAddr: 0x7E70, symBinAddr: 0x100008D6C, symSize: 0x28 }
  - { offsetInCU: 0x23EAF, offset: 0x23EAF, size: 0x8, addend: 0x0, symName: __ZNSt3__114__split_bufferI6VertexRNS_9allocatorIS1_EEED2Ev, symObjAddr: 0x7E98, symBinAddr: 0x100008D94, symSize: 0x8C }
  - { offsetInCU: 0x23EDB, offset: 0x23EDB, size: 0x8, addend: 0x0, symName: __ZNSt3__114__split_bufferI6VertexRNS_9allocatorIS1_EEE5clearB8ue170006Ev, symObjAddr: 0x7F24, symBinAddr: 0x100008E20, symSize: 0x28 }
  - { offsetInCU: 0x23F01, offset: 0x23F01, size: 0x8, addend: 0x0, symName: __ZNSt3__116allocator_traitsINS_9allocatorI6VertexEEE10deallocateB8ue170006ERS3_PS2_m, symObjAddr: 0x7F4C, symBinAddr: 0x100008E48, symSize: 0x34 }
  - { offsetInCU: 0x23F43, offset: 0x23F43, size: 0x8, addend: 0x0, symName: __ZNKSt3__114__split_bufferI6VertexRNS_9allocatorIS1_EEE8capacityB8ue170006Ev, symObjAddr: 0x7F80, symBinAddr: 0x100008E7C, symSize: 0x40 }
  - { offsetInCU: 0x23F69, offset: 0x23F69, size: 0x8, addend: 0x0, symName: __ZNSt3__114__split_bufferI6VertexRNS_9allocatorIS1_EEE17__destruct_at_endB8ue170006EPS1_, symObjAddr: 0x7FC0, symBinAddr: 0x100008EBC, symSize: 0x2C }
  - { offsetInCU: 0x23F9D, offset: 0x23F9D, size: 0x8, addend: 0x0, symName: __ZNSt3__114__split_bufferI6VertexRNS_9allocatorIS1_EEE17__destruct_at_endB8ue170006EPS1_NS_17integral_constantIbLb0EEE, symObjAddr: 0x7FEC, symBinAddr: 0x100008EE8, symSize: 0x80 }
  - { offsetInCU: 0x23FDD, offset: 0x23FDD, size: 0x8, addend: 0x0, symName: __ZNSt3__116allocator_traitsINS_9allocatorI6VertexEEE7destroyB8ue170006IS2_vEEvRS3_PT_, symObjAddr: 0x806C, symBinAddr: 0x100008F68, symSize: 0x2C }
  - { offsetInCU: 0x2401A, offset: 0x2401A, size: 0x8, addend: 0x0, symName: __ZNSt3__19allocatorI6VertexE7destroyB8ue170006EPS1_, symObjAddr: 0x8098, symBinAddr: 0x100008F94, symSize: 0x14 }
  - { offsetInCU: 0x2404E, offset: 0x2404E, size: 0x8, addend: 0x0, symName: __ZNSt3__19allocatorI6VertexE10deallocateB8ue170006EPS1_m, symObjAddr: 0x80AC, symBinAddr: 0x100008FA8, symSize: 0x44 }
  - { offsetInCU: 0x24090, offset: 0x24090, size: 0x8, addend: 0x0, symName: __ZNKSt3__114__split_bufferI6VertexRNS_9allocatorIS1_EEE9__end_capB8ue170006Ev, symObjAddr: 0x81F8, symBinAddr: 0x1000090F4, symSize: 0x28 }
  - { offsetInCU: 0x240B6, offset: 0x240B6, size: 0x8, addend: 0x0, symName: __ZNKSt3__117__compressed_pairIP6VertexRNS_9allocatorIS1_EEE5firstB8ue170006Ev, symObjAddr: 0x8220, symBinAddr: 0x10000911C, symSize: 0x24 }
  - { offsetInCU: 0x240DC, offset: 0x240DC, size: 0x8, addend: 0x0, symName: __ZNSt3__16vectorI4FaceNS_9allocatorIS1_EEE9__end_capB8ue170006Ev, symObjAddr: 0x8244, symBinAddr: 0x100009140, symSize: 0x28 }
  - { offsetInCU: 0x24102, offset: 0x24102, size: 0x8, addend: 0x0, symName: __ZNSt3__16vectorI4FaceNS_9allocatorIS1_EEE22__construct_one_at_endB8ue170006IJRKS1_EEEvDpOT_, symObjAddr: 0x826C, symBinAddr: 0x100009168, symSize: 0x90 }
  - { offsetInCU: 0x24151, offset: 0x24151, size: 0x8, addend: 0x0, symName: __ZNSt3__16vectorI4FaceNS_9allocatorIS1_EEE21__push_back_slow_pathIRKS1_EEvOT_, symObjAddr: 0x82FC, symBinAddr: 0x1000091F8, symSize: 0xD8 }
  - { offsetInCU: 0x241AF, offset: 0x241AF, size: 0x8, addend: 0x0, symName: __ZNSt3__117__compressed_pairIP4FaceNS_9allocatorIS1_EEE5firstB8ue170006Ev, symObjAddr: 0x83D4, symBinAddr: 0x1000092D0, symSize: 0x24 }
  - { offsetInCU: 0x241D5, offset: 0x241D5, size: 0x8, addend: 0x0, symName: __ZNSt3__122__compressed_pair_elemIP4FaceLi0ELb0EE5__getB8ue170006Ev, symObjAddr: 0x83F8, symBinAddr: 0x1000092F4, symSize: 0x14 }
  - { offsetInCU: 0x24214, offset: 0x24214, size: 0x8, addend: 0x0, symName: __ZNSt3__16vectorI4FaceNS_9allocatorIS1_EEE21_ConstructTransactionC1B8ue170006ERS4_m, symObjAddr: 0x840C, symBinAddr: 0x100009308, symSize: 0x3C }
  - { offsetInCU: 0x2425C, offset: 0x2425C, size: 0x8, addend: 0x0, symName: __ZNSt3__116allocator_traitsINS_9allocatorI4FaceEEE9constructB8ue170006IS2_JRKS2_EvEEvRS3_PT_DpOT0_, symObjAddr: 0x8448, symBinAddr: 0x100009344, symSize: 0x34 }
  - { offsetInCU: 0x242B3, offset: 0x242B3, size: 0x8, addend: 0x0, symName: __ZNSt3__16vectorI4FaceNS_9allocatorIS1_EEE7__allocB8ue170006Ev, symObjAddr: 0x847C, symBinAddr: 0x100009378, symSize: 0x28 }
  - { offsetInCU: 0x242D9, offset: 0x242D9, size: 0x8, addend: 0x0, symName: __ZNSt3__16vectorI4FaceNS_9allocatorIS1_EEE21_ConstructTransactionD1B8ue170006Ev, symObjAddr: 0x84B8, symBinAddr: 0x1000093B4, symSize: 0x2C }
  - { offsetInCU: 0x24303, offset: 0x24303, size: 0x8, addend: 0x0, symName: __ZNSt3__16vectorI4FaceNS_9allocatorIS1_EEE21_ConstructTransactionC2B8ue170006ERS4_m, symObjAddr: 0x84E4, symBinAddr: 0x1000093E0, symSize: 0x4C }
  - { offsetInCU: 0x2434B, offset: 0x2434B, size: 0x8, addend: 0x0, symName: __ZNSt3__19allocatorI4FaceE9constructB8ue170006IS1_JRKS1_EEEvPT_DpOT0_, symObjAddr: 0x8530, symBinAddr: 0x10000942C, symSize: 0x30 }
  - { offsetInCU: 0x243A1, offset: 0x243A1, size: 0x8, addend: 0x0, symName: __ZNSt3__117__compressed_pairIP4FaceNS_9allocatorIS1_EEE6secondB8ue170006Ev, symObjAddr: 0x8560, symBinAddr: 0x10000945C, symSize: 0x24 }
  - { offsetInCU: 0x243C7, offset: 0x243C7, size: 0x8, addend: 0x0, symName: __ZNSt3__122__compressed_pair_elemINS_9allocatorI4FaceEELi1ELb1EE5__getB8ue170006Ev, symObjAddr: 0x8584, symBinAddr: 0x100009480, symSize: 0x14 }
  - { offsetInCU: 0x243ED, offset: 0x243ED, size: 0x8, addend: 0x0, symName: __ZNSt3__16vectorI4FaceNS_9allocatorIS1_EEE21_ConstructTransactionD2B8ue170006Ev, symObjAddr: 0x8598, symBinAddr: 0x100009494, symSize: 0x20 }
  - { offsetInCU: 0x24417, offset: 0x24417, size: 0x8, addend: 0x0, symName: __ZNKSt3__16vectorI4FaceNS_9allocatorIS1_EEE11__recommendB8ue170006Em, symObjAddr: 0x85B8, symBinAddr: 0x1000094B4, symSize: 0xB4 }
  - { offsetInCU: 0x2446C, offset: 0x2446C, size: 0x8, addend: 0x0, symName: __ZNSt3__114__split_bufferI4FaceRNS_9allocatorIS1_EEEC1EmmS4_, symObjAddr: 0x866C, symBinAddr: 0x100009568, symSize: 0x44 }
  - { offsetInCU: 0x244C2, offset: 0x244C2, size: 0x8, addend: 0x0, symName: __ZNSt3__114__split_bufferI4FaceRNS_9allocatorIS1_EEED1Ev, symObjAddr: 0x87C0, symBinAddr: 0x1000096BC, symSize: 0x2C }
  - { offsetInCU: 0x244EE, offset: 0x244EE, size: 0x8, addend: 0x0, symName: __ZNKSt3__16vectorI4FaceNS_9allocatorIS1_EEE8max_sizeEv, symObjAddr: 0x87EC, symBinAddr: 0x1000096E8, symSize: 0x60 }
  - { offsetInCU: 0x24516, offset: 0x24516, size: 0x8, addend: 0x0, symName: __ZNKSt3__16vectorI4FaceNS_9allocatorIS1_EEE20__throw_length_errorB8ue170006Ev, symObjAddr: 0x884C, symBinAddr: 0x100009748, symSize: 0x1C }
  - { offsetInCU: 0x2453C, offset: 0x2453C, size: 0x8, addend: 0x0, symName: __ZNKSt3__16vectorI4FaceNS_9allocatorIS1_EEE8capacityB8ue170006Ev, symObjAddr: 0x8868, symBinAddr: 0x100009764, symSize: 0x40 }
  - { offsetInCU: 0x2456C, offset: 0x2456C, size: 0x8, addend: 0x0, symName: __ZNSt3__116allocator_traitsINS_9allocatorI4FaceEEE8max_sizeB8ue170006IS3_vEEmRKS3_, symObjAddr: 0x88A8, symBinAddr: 0x1000097A4, symSize: 0x24 }
  - { offsetInCU: 0x2459A, offset: 0x2459A, size: 0x8, addend: 0x0, symName: __ZNKSt3__16vectorI4FaceNS_9allocatorIS1_EEE7__allocB8ue170006Ev, symObjAddr: 0x88CC, symBinAddr: 0x1000097C8, symSize: 0x28 }
  - { offsetInCU: 0x245C0, offset: 0x245C0, size: 0x8, addend: 0x0, symName: __ZNKSt3__19allocatorI4FaceE8max_sizeB8ue170006Ev, symObjAddr: 0x88F4, symBinAddr: 0x1000097F0, symSize: 0x18 }
  - { offsetInCU: 0x245E6, offset: 0x245E6, size: 0x8, addend: 0x0, symName: __ZNKSt3__117__compressed_pairIP4FaceNS_9allocatorIS1_EEE6secondB8ue170006Ev, symObjAddr: 0x890C, symBinAddr: 0x100009808, symSize: 0x24 }
  - { offsetInCU: 0x2460C, offset: 0x2460C, size: 0x8, addend: 0x0, symName: __ZNKSt3__122__compressed_pair_elemINS_9allocatorI4FaceEELi1ELb1EE5__getB8ue170006Ev, symObjAddr: 0x8930, symBinAddr: 0x10000982C, symSize: 0x14 }
  - { offsetInCU: 0x24632, offset: 0x24632, size: 0x8, addend: 0x0, symName: __ZNKSt3__16vectorI4FaceNS_9allocatorIS1_EEE9__end_capB8ue170006Ev, symObjAddr: 0x8944, symBinAddr: 0x100009840, symSize: 0x28 }
  - { offsetInCU: 0x24658, offset: 0x24658, size: 0x8, addend: 0x0, symName: __ZNKSt3__117__compressed_pairIP4FaceNS_9allocatorIS1_EEE5firstB8ue170006Ev, symObjAddr: 0x896C, symBinAddr: 0x100009868, symSize: 0x24 }
  - { offsetInCU: 0x2467E, offset: 0x2467E, size: 0x8, addend: 0x0, symName: __ZNKSt3__122__compressed_pair_elemIP4FaceLi0ELb0EE5__getB8ue170006Ev, symObjAddr: 0x8990, symBinAddr: 0x10000988C, symSize: 0x14 }
  - { offsetInCU: 0x246A4, offset: 0x246A4, size: 0x8, addend: 0x0, symName: __ZNSt3__114__split_bufferI4FaceRNS_9allocatorIS1_EEEC2EmmS4_, symObjAddr: 0x89A4, symBinAddr: 0x1000098A0, symSize: 0xE0 }
  - { offsetInCU: 0x24717, offset: 0x24717, size: 0x8, addend: 0x0, symName: __ZNSt3__117__compressed_pairIP4FaceRNS_9allocatorIS1_EEEC1B8ue170006IDnS5_EEOT_OT0_, symObjAddr: 0x8A84, symBinAddr: 0x100009980, symSize: 0x3C }
  - { offsetInCU: 0x2476F, offset: 0x2476F, size: 0x8, addend: 0x0, symName: __ZNSt3__114__split_bufferI4FaceRNS_9allocatorIS1_EEE7__allocB8ue170006Ev, symObjAddr: 0x8B00, symBinAddr: 0x1000099FC, symSize: 0x28 }
  - { offsetInCU: 0x24795, offset: 0x24795, size: 0x8, addend: 0x0, symName: __ZNSt3__114__split_bufferI4FaceRNS_9allocatorIS1_EEE9__end_capB8ue170006Ev, symObjAddr: 0x8B28, symBinAddr: 0x100009A24, symSize: 0x28 }
  - { offsetInCU: 0x247BB, offset: 0x247BB, size: 0x8, addend: 0x0, symName: __ZNSt3__117__compressed_pairIP4FaceRNS_9allocatorIS1_EEEC2B8ue170006IDnS5_EEOT_OT0_, symObjAddr: 0x8B50, symBinAddr: 0x100009A4C, symSize: 0x48 }
  - { offsetInCU: 0x24813, offset: 0x24813, size: 0x8, addend: 0x0, symName: __ZNSt3__122__compressed_pair_elemIP4FaceLi0ELb0EEC2B8ue170006IDnvEEOT_, symObjAddr: 0x8B98, symBinAddr: 0x100009A94, symSize: 0x1C }
  - { offsetInCU: 0x24855, offset: 0x24855, size: 0x8, addend: 0x0, symName: __ZNSt3__122__compressed_pair_elemIRNS_9allocatorI4FaceEELi1ELb0EEC2B8ue170006IS4_vEEOT_, symObjAddr: 0x8BB4, symBinAddr: 0x100009AB0, symSize: 0x20 }
  - { offsetInCU: 0x24897, offset: 0x24897, size: 0x8, addend: 0x0, symName: __ZNSt3__19allocatorI4FaceE8allocateB8ue170006Em, symObjAddr: 0x8BD4, symBinAddr: 0x100009AD0, symSize: 0x5C }
  - { offsetInCU: 0x248CB, offset: 0x248CB, size: 0x8, addend: 0x0, symName: __ZNSt3__117__compressed_pairIP4FaceRNS_9allocatorIS1_EEE6secondB8ue170006Ev, symObjAddr: 0x8C30, symBinAddr: 0x100009B2C, symSize: 0x28 }
  - { offsetInCU: 0x248F1, offset: 0x248F1, size: 0x8, addend: 0x0, symName: __ZNSt3__122__compressed_pair_elemIRNS_9allocatorI4FaceEELi1ELb0EE5__getB8ue170006Ev, symObjAddr: 0x8C58, symBinAddr: 0x100009B54, symSize: 0x18 }
  - { offsetInCU: 0x24917, offset: 0x24917, size: 0x8, addend: 0x0, symName: __ZNSt3__117__compressed_pairIP4FaceRNS_9allocatorIS1_EEE5firstB8ue170006Ev, symObjAddr: 0x8C70, symBinAddr: 0x100009B6C, symSize: 0x24 }
  - { offsetInCU: 0x2493D, offset: 0x2493D, size: 0x8, addend: 0x0, symName: __ZNKSt3__16vectorI4FaceNS_9allocatorIS1_EEE17__annotate_deleteB8ue170006Ev, symObjAddr: 0x8C94, symBinAddr: 0x100009B90, symSize: 0xD4 }
  - { offsetInCU: 0x24963, offset: 0x24963, size: 0x8, addend: 0x0, symName: __ZNSt3__116reverse_iteratorIP4FaceEC1B8ue170006ES2_, symObjAddr: 0x8DE0, symBinAddr: 0x100009CDC, symSize: 0x34 }
  - { offsetInCU: 0x2499B, offset: 0x2499B, size: 0x8, addend: 0x0, symName: __ZNKSt3__116reverse_iteratorIP4FaceE4baseB8ue170006Ev, symObjAddr: 0x8E14, symBinAddr: 0x100009D10, symSize: 0x18 }
  - { offsetInCU: 0x249C1, offset: 0x249C1, size: 0x8, addend: 0x0, symName: __ZNKSt3__16vectorI4FaceNS_9allocatorIS1_EEE14__annotate_newB8ue170006Em, symObjAddr: 0x8E68, symBinAddr: 0x100009D64, symSize: 0xC8 }
  - { offsetInCU: 0x249F6, offset: 0x249F6, size: 0x8, addend: 0x0, symName: __ZNKSt3__16vectorI4FaceNS_9allocatorIS1_EEE31__annotate_contiguous_containerB8ue170006EPKvS6_S6_S6_, symObjAddr: 0x8F30, symBinAddr: 0x100009E2C, symSize: 0x20 }
  - { offsetInCU: 0x24A48, offset: 0x24A48, size: 0x8, addend: 0x0, symName: __ZNKSt3__16vectorI4FaceNS_9allocatorIS1_EEE4dataB8ue170006Ev, symObjAddr: 0x8F50, symBinAddr: 0x100009E4C, symSize: 0x28 }
  - { offsetInCU: 0x24A88, offset: 0x24A88, size: 0x8, addend: 0x0, symName: __ZNKSt3__111__move_loopINS_17_ClassicAlgPolicyEEclB8ue170006INS_16reverse_iteratorIP4FaceEES7_S7_EENS_4pairIT_T1_EES9_T0_SA_, symObjAddr: 0x9268, symBinAddr: 0x10000A164, symSize: 0xA8 }
  - { offsetInCU: 0x24AF9, offset: 0x24AF9, size: 0x8, addend: 0x0, symName: __ZNSt3__18_IterOpsINS_17_ClassicAlgPolicyEE11__iter_moveB8ue170006IRNS_16reverse_iteratorIP4FaceEEEENS_9enable_ifIXsr12is_referenceIDTdeclsr3stdE7declvalIRT_EEEEE5valueEDTclsr3stdE4movedeclsr3stdE7declvalISB_EEEEE4typeEOSA_, symObjAddr: 0x94A4, symBinAddr: 0x10000A3A0, symSize: 0x28 }
  - { offsetInCU: 0x24B25, offset: 0x24B25, size: 0x8, addend: 0x0, symName: __ZNKSt3__116reverse_iteratorIP4FaceEdeB8ue170006Ev, symObjAddr: 0x94CC, symBinAddr: 0x10000A3C8, symSize: 0x28 }
  - { offsetInCU: 0x24B59, offset: 0x24B59, size: 0x8, addend: 0x0, symName: __ZNSt3__116reverse_iteratorIP4FaceEppB8ue170006Ev, symObjAddr: 0x94F4, symBinAddr: 0x10000A3F0, symSize: 0x20 }
  - { offsetInCU: 0x24B7F, offset: 0x24B7F, size: 0x8, addend: 0x0, symName: __ZNSt3__18_IterOpsINS_17_ClassicAlgPolicyEE25__validate_iter_referenceB8ue170006IRNS_16reverse_iteratorIP4FaceEEEEvv, symObjAddr: 0x9514, symBinAddr: 0x10000A410, symSize: 0x4 }
  - { offsetInCU: 0x24B9D, offset: 0x24B9D, size: 0x8, addend: 0x0, symName: __ZNSt3__118__unwrap_iter_implINS_16reverse_iteratorIP4FaceEELb0EE8__unwrapB8ue170006ES4_, symObjAddr: 0x9518, symBinAddr: 0x10000A414, symSize: 0x24 }
  - { offsetInCU: 0x24BC6, offset: 0x24BC6, size: 0x8, addend: 0x0, symName: __ZNSt3__14pairINS_16reverse_iteratorIP4FaceEES4_EC1B8ue170006IS4_S4_LPv0EEEOT_OT0_, symObjAddr: 0x953C, symBinAddr: 0x10000A438, symSize: 0x3C }
  - { offsetInCU: 0x24C24, offset: 0x24C24, size: 0x8, addend: 0x0, symName: __ZNSt3__14pairINS_16reverse_iteratorIP4FaceEES4_EC2B8ue170006IS4_S4_LPv0EEEOT_OT0_, symObjAddr: 0x9578, symBinAddr: 0x10000A474, symSize: 0x34 }
  - { offsetInCU: 0x24C82, offset: 0x24C82, size: 0x8, addend: 0x0, symName: __ZNSt3__118__unwrap_iter_implINS_16reverse_iteratorIP4FaceEELb0EE8__rewrapB8ue170006ES4_S4_, symObjAddr: 0x95AC, symBinAddr: 0x10000A4A8, symSize: 0x2C }
  - { offsetInCU: 0x24CAF, offset: 0x24CAF, size: 0x8, addend: 0x0, symName: __ZNSt3__116reverse_iteratorIP4FaceEC2B8ue170006ES2_, symObjAddr: 0x95D8, symBinAddr: 0x10000A4D4, symSize: 0x28 }
  - { offsetInCU: 0x24CE7, offset: 0x24CE7, size: 0x8, addend: 0x0, symName: __ZNSt3__114__split_bufferI4FaceRNS_9allocatorIS1_EEED2Ev, symObjAddr: 0x9600, symBinAddr: 0x10000A4FC, symSize: 0x8C }
  - { offsetInCU: 0x24D13, offset: 0x24D13, size: 0x8, addend: 0x0, symName: __ZNSt3__114__split_bufferI4FaceRNS_9allocatorIS1_EEE5clearB8ue170006Ev, symObjAddr: 0x968C, symBinAddr: 0x10000A588, symSize: 0x28 }
  - { offsetInCU: 0x24D39, offset: 0x24D39, size: 0x8, addend: 0x0, symName: __ZNSt3__116allocator_traitsINS_9allocatorI4FaceEEE10deallocateB8ue170006ERS3_PS2_m, symObjAddr: 0x96B4, symBinAddr: 0x10000A5B0, symSize: 0x34 }
  - { offsetInCU: 0x24D7B, offset: 0x24D7B, size: 0x8, addend: 0x0, symName: __ZNKSt3__114__split_bufferI4FaceRNS_9allocatorIS1_EEE8capacityB8ue170006Ev, symObjAddr: 0x96E8, symBinAddr: 0x10000A5E4, symSize: 0x40 }
  - { offsetInCU: 0x24DA1, offset: 0x24DA1, size: 0x8, addend: 0x0, symName: __ZNSt3__114__split_bufferI4FaceRNS_9allocatorIS1_EEE17__destruct_at_endB8ue170006EPS1_, symObjAddr: 0x9728, symBinAddr: 0x10000A624, symSize: 0x2C }
  - { offsetInCU: 0x24DD5, offset: 0x24DD5, size: 0x8, addend: 0x0, symName: __ZNSt3__114__split_bufferI4FaceRNS_9allocatorIS1_EEE17__destruct_at_endB8ue170006EPS1_NS_17integral_constantIbLb0EEE, symObjAddr: 0x9754, symBinAddr: 0x10000A650, symSize: 0x80 }
  - { offsetInCU: 0x24E15, offset: 0x24E15, size: 0x8, addend: 0x0, symName: __ZNSt3__116allocator_traitsINS_9allocatorI4FaceEEE7destroyB8ue170006IS2_vEEvRS3_PT_, symObjAddr: 0x97D4, symBinAddr: 0x10000A6D0, symSize: 0x2C }
  - { offsetInCU: 0x24E52, offset: 0x24E52, size: 0x8, addend: 0x0, symName: __ZNSt3__19allocatorI4FaceE7destroyB8ue170006EPS1_, symObjAddr: 0x9800, symBinAddr: 0x10000A6FC, symSize: 0x14 }
  - { offsetInCU: 0x24E86, offset: 0x24E86, size: 0x8, addend: 0x0, symName: __ZNSt3__19allocatorI4FaceE10deallocateB8ue170006EPS1_m, symObjAddr: 0x9814, symBinAddr: 0x10000A710, symSize: 0x44 }
  - { offsetInCU: 0x24EC8, offset: 0x24EC8, size: 0x8, addend: 0x0, symName: __ZNKSt3__114__split_bufferI4FaceRNS_9allocatorIS1_EEE9__end_capB8ue170006Ev, symObjAddr: 0x9858, symBinAddr: 0x10000A754, symSize: 0x28 }
  - { offsetInCU: 0x24EEE, offset: 0x24EEE, size: 0x8, addend: 0x0, symName: __ZNKSt3__117__compressed_pairIP4FaceRNS_9allocatorIS1_EEE5firstB8ue170006Ev, symObjAddr: 0x9880, symBinAddr: 0x10000A77C, symSize: 0x24 }
  - { offsetInCU: 0x24F14, offset: 0x24F14, size: 0x8, addend: 0x0, symName: __ZNSt3__123mersenne_twister_engineIjLm32ELm624ELm397ELm31ELj2567483615ELm11ELj4294967295ELm7ELj2636928640ELm15ELj4022730752ELm18ELj1812433253EEC2B8ue170006Ej, symObjAddr: 0x98A4, symBinAddr: 0x10000A7A0, symSize: 0x34 }
  - { offsetInCU: 0x24F4C, offset: 0x24F4C, size: 0x8, addend: 0x0, symName: __ZNSt3__123mersenne_twister_engineIjLm32ELm624ELm397ELm31ELj2567483615ELm11ELj4294967295ELm7ELj2636928640ELm15ELj4022730752ELm18ELj1812433253EE4seedEj, symObjAddr: 0x98D8, symBinAddr: 0x10000A7D4, symSize: 0xC4 }
  - { offsetInCU: 0x24F9F, offset: 0x24F9F, size: 0x8, addend: 0x0, symName: __ZNSt3__123mersenne_twister_engineIjLm32ELm624ELm397ELm31ELj2567483615ELm11ELj4294967295ELm7ELj2636928640ELm15ELj4022730752ELm18ELj1812433253EE8__rshiftB8ue170006ILm30EEENS_9enable_ifIXltT_L_ZNS1_3_DtEEEjE4typeEj, symObjAddr: 0x999C, symBinAddr: 0x10000A898, symSize: 0x18 }
  - { offsetInCU: 0x24FCC, offset: 0x24FCC, size: 0x8, addend: 0x0, symName: __ZNSt3__125uniform_real_distributionIdEC2B8ue170006Edd, symObjAddr: 0x99B4, symBinAddr: 0x10000A8B0, symSize: 0x3C }
  - { offsetInCU: 0x25012, offset: 0x25012, size: 0x8, addend: 0x0, symName: __ZNSt3__125uniform_real_distributionIdE10param_typeC1B8ue170006Edd, symObjAddr: 0x99F0, symBinAddr: 0x10000A8EC, symSize: 0x3C }
  - { offsetInCU: 0x25058, offset: 0x25058, size: 0x8, addend: 0x0, symName: __ZNSt3__125uniform_real_distributionIdE10param_typeC2B8ue170006Edd, symObjAddr: 0x9A2C, symBinAddr: 0x10000A928, symSize: 0x2C }
  - { offsetInCU: 0x2509E, offset: 0x2509E, size: 0x8, addend: 0x0, symName: __ZNSt3__125uniform_real_distributionIdEclINS_23mersenne_twister_engineIjLm32ELm624ELm397ELm31ELj2567483615ELm11ELj4294967295ELm7ELj2636928640ELm15ELj4022730752ELm18ELj1812433253EEEEEdRT_RKNS1_10param_typeE, symObjAddr: 0x9A58, symBinAddr: 0x10000A954, symSize: 0x6C }
  - { offsetInCU: 0x250EA, offset: 0x250EA, size: 0x8, addend: 0x0, symName: __ZNKSt3__125uniform_real_distributionIdE10param_type1bB8ue170006Ev, symObjAddr: 0x9AC4, symBinAddr: 0x10000A9C0, symSize: 0x18 }
  - { offsetInCU: 0x25110, offset: 0x25110, size: 0x8, addend: 0x0, symName: __ZNKSt3__125uniform_real_distributionIdE10param_type1aB8ue170006Ev, symObjAddr: 0x9ADC, symBinAddr: 0x10000A9D8, symSize: 0x18 }
  - { offsetInCU: 0x25136, offset: 0x25136, size: 0x8, addend: 0x0, symName: __ZNSt3__123mersenne_twister_engineIjLm32ELm624ELm397ELm31ELj2567483615ELm11ELj4294967295ELm7ELj2636928640ELm15ELj4022730752ELm18ELj1812433253EE3maxB8ue170006Ev, symObjAddr: 0x9C08, symBinAddr: 0x10000AB04, symSize: 0x8 }
  - { offsetInCU: 0x2514A, offset: 0x2514A, size: 0x8, addend: 0x0, symName: __ZNSt3__123mersenne_twister_engineIjLm32ELm624ELm397ELm31ELj2567483615ELm11ELj4294967295ELm7ELj2636928640ELm15ELj4022730752ELm18ELj1812433253EE3minB8ue170006Ev, symObjAddr: 0x9C10, symBinAddr: 0x10000AB0C, symSize: 0x8 }
  - { offsetInCU: 0x2515E, offset: 0x2515E, size: 0x8, addend: 0x0, symName: __ZNSt3__123mersenne_twister_engineIjLm32ELm624ELm397ELm31ELj2567483615ELm11ELj4294967295ELm7ELj2636928640ELm15ELj4022730752ELm18ELj1812433253EEclEv, symObjAddr: 0x9C18, symBinAddr: 0x10000AB14, symSize: 0x14C }
  - { offsetInCU: 0x251D1, offset: 0x251D1, size: 0x8, addend: 0x0, symName: __ZNSt3__123mersenne_twister_engineIjLm32ELm624ELm397ELm31ELj2567483615ELm11ELj4294967295ELm7ELj2636928640ELm15ELj4022730752ELm18ELj1812433253EE8__rshiftB8ue170006ILm1EEENS_9enable_ifIXltT_L_ZNS1_3_DtEEEjE4typeEj, symObjAddr: 0x9D64, symBinAddr: 0x10000AC60, symSize: 0x18 }
  - { offsetInCU: 0x251FE, offset: 0x251FE, size: 0x8, addend: 0x0, symName: __ZNSt3__123mersenne_twister_engineIjLm32ELm624ELm397ELm31ELj2567483615ELm11ELj4294967295ELm7ELj2636928640ELm15ELj4022730752ELm18ELj1812433253EE8__rshiftB8ue170006ILm11EEENS_9enable_ifIXltT_L_ZNS1_3_DtEEEjE4typeEj, symObjAddr: 0x9D7C, symBinAddr: 0x10000AC78, symSize: 0x18 }
  - { offsetInCU: 0x2522B, offset: 0x2522B, size: 0x8, addend: 0x0, symName: __ZNSt3__123mersenne_twister_engineIjLm32ELm624ELm397ELm31ELj2567483615ELm11ELj4294967295ELm7ELj2636928640ELm15ELj4022730752ELm18ELj1812433253EE8__lshiftB8ue170006ILm7EEENS_9enable_ifIXltT_Lm32EEjE4typeEj, symObjAddr: 0x9D94, symBinAddr: 0x10000AC90, symSize: 0x1C }
  - { offsetInCU: 0x25258, offset: 0x25258, size: 0x8, addend: 0x0, symName: __ZNSt3__123mersenne_twister_engineIjLm32ELm624ELm397ELm31ELj2567483615ELm11ELj4294967295ELm7ELj2636928640ELm15ELj4022730752ELm18ELj1812433253EE8__lshiftB8ue170006ILm15EEENS_9enable_ifIXltT_Lm32EEjE4typeEj, symObjAddr: 0x9DB0, symBinAddr: 0x10000ACAC, symSize: 0x1C }
  - { offsetInCU: 0x25285, offset: 0x25285, size: 0x8, addend: 0x0, symName: __ZNSt3__123mersenne_twister_engineIjLm32ELm624ELm397ELm31ELj2567483615ELm11ELj4294967295ELm7ELj2636928640ELm15ELj4022730752ELm18ELj1812433253EE8__rshiftB8ue170006ILm18EEENS_9enable_ifIXltT_L_ZNS1_3_DtEEEjE4typeEj, symObjAddr: 0x9DCC, symBinAddr: 0x10000ACC8, symSize: 0x18 }
  - { offsetInCU: 0x252B2, offset: 0x252B2, size: 0x8, addend: 0x0, symName: __ZNSt3__16vectorI6VertexNS_9allocatorIS1_EEEC2ERKS4_, symObjAddr: 0x9DE4, symBinAddr: 0x10000ACE0, symSize: 0x94 }
  - { offsetInCU: 0x252ED, offset: 0x252ED, size: 0x8, addend: 0x0, symName: __ZNSt3__116allocator_traitsINS_9allocatorI6VertexEEE37select_on_container_copy_constructionB8ue170006IS3_vvEES3_RKS3_, symObjAddr: 0x9E78, symBinAddr: 0x10000AD74, symSize: 0x10 }
  - { offsetInCU: 0x25322, offset: 0x25322, size: 0x8, addend: 0x0, symName: __ZNSt3__117__compressed_pairIP6VertexNS_9allocatorIS1_EEEC1B8ue170006IDnS4_EEOT_OT0_, symObjAddr: 0x9E88, symBinAddr: 0x10000AD84, symSize: 0x3C }
  - { offsetInCU: 0x2537A, offset: 0x2537A, size: 0x8, addend: 0x0, symName: __ZNSt3__16vectorI6VertexNS_9allocatorIS1_EEE16__init_with_sizeB8ue170006IPS1_S6_EEvT_T0_m, symObjAddr: 0x9EC4, symBinAddr: 0x10000ADC0, symSize: 0xB8 }
  - { offsetInCU: 0x253EE, offset: 0x253EE, size: 0x8, addend: 0x0, symName: __ZNSt3__117__compressed_pairIP6VertexNS_9allocatorIS1_EEEC2B8ue170006IDnS4_EEOT_OT0_, symObjAddr: 0x9F7C, symBinAddr: 0x10000AE78, symSize: 0x44 }
  - { offsetInCU: 0x25446, offset: 0x25446, size: 0x8, addend: 0x0, symName: __ZNSt3__122__compressed_pair_elemINS_9allocatorI6VertexEELi1ELb1EEC2B8ue170006IS3_vEEOT_, symObjAddr: 0x9FC0, symBinAddr: 0x10000AEBC, symSize: 0x18 }
  - { offsetInCU: 0x25488, offset: 0x25488, size: 0x8, addend: 0x0, symName: __ZNSt3__16vectorI6VertexNS_9allocatorIS1_EEE16__destroy_vectorC1B8ue170006ERS4_, symObjAddr: 0xA018, symBinAddr: 0x10000AF14, symSize: 0x34 }
  - { offsetInCU: 0x254C1, offset: 0x254C1, size: 0x8, addend: 0x0, symName: __ZNSt3__16vectorI6VertexNS_9allocatorIS1_EEE11__vallocateB8ue170006Em, symObjAddr: 0xA04C, symBinAddr: 0x10000AF48, symSize: 0xB4 }
  - { offsetInCU: 0x25505, offset: 0x25505, size: 0x8, addend: 0x0, symName: __ZNSt3__16vectorI6VertexNS_9allocatorIS1_EEE18__construct_at_endIPS1_S6_EEvT_T0_m, symObjAddr: 0xA100, symBinAddr: 0x10000AFFC, symSize: 0x8C }
  - { offsetInCU: 0x2557B, offset: 0x2557B, size: 0x8, addend: 0x0, symName: __ZNSt3__128__exception_guard_exceptionsINS_6vectorI6VertexNS_9allocatorIS2_EEE16__destroy_vectorEE10__completeB8ue170006Ev, symObjAddr: 0xA18C, symBinAddr: 0x10000B088, symSize: 0x1C }
  - { offsetInCU: 0x255A1, offset: 0x255A1, size: 0x8, addend: 0x0, symName: __ZNSt3__128__exception_guard_exceptionsINS_6vectorI6VertexNS_9allocatorIS2_EEE16__destroy_vectorEED1B8ue170006Ev, symObjAddr: 0xA1A8, symBinAddr: 0x10000B0A4, symSize: 0x2C }
  - { offsetInCU: 0x255CB, offset: 0x255CB, size: 0x8, addend: 0x0, symName: __ZNSt3__128__exception_guard_exceptionsINS_6vectorI6VertexNS_9allocatorIS2_EEE16__destroy_vectorEEC1B8ue170006ES6_, symObjAddr: 0xA1D4, symBinAddr: 0x10000B0D0, symSize: 0x34 }
  - { offsetInCU: 0x25603, offset: 0x25603, size: 0x8, addend: 0x0, symName: __ZNSt3__128__exception_guard_exceptionsINS_6vectorI6VertexNS_9allocatorIS2_EEE16__destroy_vectorEEC2B8ue170006ES6_, symObjAddr: 0xA208, symBinAddr: 0x10000B104, symSize: 0x24 }
  - { offsetInCU: 0x2563B, offset: 0x2563B, size: 0x8, addend: 0x0, symName: __ZNSt3__16vectorI6VertexNS_9allocatorIS1_EEE16__destroy_vectorC2B8ue170006ERS4_, symObjAddr: 0xA22C, symBinAddr: 0x10000B128, symSize: 0x20 }
  - { offsetInCU: 0x25694, offset: 0x25694, size: 0x8, addend: 0x0, symName: __ZNSt3__14pairIP6VertexS2_EC1B8ue170006IS2_S2_LPv0EEEOT_OT0_, symObjAddr: 0xA3FC, symBinAddr: 0x10000B2F8, symSize: 0x3C }
  - { offsetInCU: 0x256F2, offset: 0x256F2, size: 0x8, addend: 0x0, symName: __ZNSt3__14pairIP6VertexS2_EC2B8ue170006IS2_S2_LPv0EEEOT_OT0_, symObjAddr: 0xA438, symBinAddr: 0x10000B334, symSize: 0x34 }
  - { offsetInCU: 0x2575A, offset: 0x2575A, size: 0x8, addend: 0x0, symName: __ZNKSt3__114__copy_trivialclB8ue170006I6VertexS2_Li0EEENS_4pairIPT_PT0_EES5_S5_S7_, symObjAddr: 0xA5E8, symBinAddr: 0x10000B4E4, symSize: 0x48 }
  - { offsetInCU: 0x257C2, offset: 0x257C2, size: 0x8, addend: 0x0, symName: __ZNSt3__14pairIP6VertexS2_EC1B8ue170006IRS2_S2_LPv0EEEOT_OT0_, symObjAddr: 0xA784, symBinAddr: 0x10000B680, symSize: 0x3C }
  - { offsetInCU: 0x25820, offset: 0x25820, size: 0x8, addend: 0x0, symName: __ZNSt3__14pairIP6VertexS2_EC2B8ue170006IRS2_S2_LPv0EEEOT_OT0_, symObjAddr: 0xA7C0, symBinAddr: 0x10000B6BC, symSize: 0x34 }
  - { offsetInCU: 0x2587E, offset: 0x2587E, size: 0x8, addend: 0x0, symName: __ZNSt3__118__unwrap_iter_implIP6VertexLb1EE8__unwrapB8ue170006ES2_, symObjAddr: 0xA7F4, symBinAddr: 0x10000B6F0, symSize: 0x24 }
  - { offsetInCU: 0x258A1, offset: 0x258A1, size: 0x8, addend: 0x0, symName: __ZNSt3__118__unwrap_iter_implIP6VertexLb1EE8__rewrapB8ue170006ES2_S2_, symObjAddr: 0xA818, symBinAddr: 0x10000B714, symSize: 0x58 }
  - { offsetInCU: 0x258D2, offset: 0x258D2, size: 0x8, addend: 0x0, symName: __ZNSt3__128__exception_guard_exceptionsINS_6vectorI6VertexNS_9allocatorIS2_EEE16__destroy_vectorEED2B8ue170006Ev, symObjAddr: 0xA870, symBinAddr: 0x10000B76C, symSize: 0x50 }
  - { offsetInCU: 0x258FC, offset: 0x258FC, size: 0x8, addend: 0x0, symName: __ZNSt3__16vectorI6VertexNS_9allocatorIS1_EEE16__destroy_vectorclB8ue170006Ev, symObjAddr: 0xA8C0, symBinAddr: 0x10000B7BC, symSize: 0x90 }
  - { offsetInCU: 0x25922, offset: 0x25922, size: 0x8, addend: 0x0, symName: __ZNSt3__16vectorI6VertexNS_9allocatorIS1_EEE7__clearB8ue170006Ev, symObjAddr: 0xA950, symBinAddr: 0x10000B84C, symSize: 0x28 }
  - { offsetInCU: 0x25948, offset: 0x25948, size: 0x8, addend: 0x0, symName: __ZNSt3__16vectorI6VertexNS_9allocatorIS1_EEE22__base_destruct_at_endB8ue170006EPS1_, symObjAddr: 0xA978, symBinAddr: 0x10000B874, symSize: 0x8C }
  - { offsetInCU: 0x2598C, offset: 0x2598C, size: 0x8, addend: 0x0, symName: __ZNSt3__16vectorI6VertexNS_9allocatorIS1_EEED2B8ue170006Ev, symObjAddr: 0xAA04, symBinAddr: 0x10000B900, symSize: 0x40 }
  - { offsetInCU: 0x259B6, offset: 0x259B6, size: 0x8, addend: 0x0, symName: __ZNKSt3__16vectorI4FaceNS_9allocatorIS1_EEE11__make_iterB8ue170006EPKS1_, symObjAddr: 0xAA44, symBinAddr: 0x10000B940, symSize: 0x30 }
  - { offsetInCU: 0x259EB, offset: 0x259EB, size: 0x8, addend: 0x0, symName: __ZNSt3__111__wrap_iterIPK4FaceEC1B8ue170006ES3_, symObjAddr: 0xAA74, symBinAddr: 0x10000B970, symSize: 0x34 }
  - { offsetInCU: 0x25A23, offset: 0x25A23, size: 0x8, addend: 0x0, symName: __ZNSt3__111__wrap_iterIPK4FaceEC2B8ue170006ES3_, symObjAddr: 0xAAA8, symBinAddr: 0x10000B9A4, symSize: 0x20 }
  - { offsetInCU: 0x25A5B, offset: 0x25A5B, size: 0x8, addend: 0x0, symName: __ZNSt3__16vectorI6VertexNS_9allocatorIS1_EEE19__copy_assign_allocB8ue170006ERKS4_, symObjAddr: 0xAAC8, symBinAddr: 0x10000B9C4, symSize: 0x2C }
  - { offsetInCU: 0x25A90, offset: 0x25A90, size: 0x8, addend: 0x0, symName: __ZNSt3__16vectorI6VertexNS_9allocatorIS1_EEE6assignIPS1_Li0EEEvT_S7_, symObjAddr: 0xAAF4, symBinAddr: 0x10000B9F0, symSize: 0x5C }
  - { offsetInCU: 0x25AE5, offset: 0x25AE5, size: 0x8, addend: 0x0, symName: __ZNSt3__16vectorI6VertexNS_9allocatorIS1_EEE19__copy_assign_allocB8ue170006ERKS4_NS_17integral_constantIbLb0EEE, symObjAddr: 0xAB50, symBinAddr: 0x10000BA4C, symSize: 0x14 }
  - { offsetInCU: 0x25B21, offset: 0x25B21, size: 0x8, addend: 0x0, symName: __ZNSt3__16vectorI6VertexNS_9allocatorIS1_EEE18__assign_with_sizeB8ue170006IPS1_S6_EEvT_T0_l, symObjAddr: 0xAB64, symBinAddr: 0x10000BA60, symSize: 0x164 }
  - { offsetInCU: 0x25BD1, offset: 0x25BD1, size: 0x8, addend: 0x0, symName: __ZNSt3__16vectorI6VertexNS_9allocatorIS1_EEE17__destruct_at_endB8ue170006EPS1_, symObjAddr: 0xAD28, symBinAddr: 0x10000BC24, symSize: 0x4C }
  - { offsetInCU: 0x25C15, offset: 0x25C15, size: 0x8, addend: 0x0, symName: __ZNSt3__16vectorI6VertexNS_9allocatorIS1_EEE13__vdeallocateEv, symObjAddr: 0xAD74, symBinAddr: 0x10000BC70, symSize: 0x94 }
  - { offsetInCU: 0x25C3D, offset: 0x25C3D, size: 0x8, addend: 0x0, symName: __ZNKSt3__16vectorI6VertexNS_9allocatorIS1_EEE17__annotate_shrinkB8ue170006Em, symObjAddr: 0xAE84, symBinAddr: 0x10000BD80, symSize: 0xD0 }
  - { offsetInCU: 0x25C72, offset: 0x25C72, size: 0x8, addend: 0x0, symName: __ZNSt3__16vectorI6VertexNS_9allocatorIS1_EEE5clearB8ue170006Ev, symObjAddr: 0xAF54, symBinAddr: 0x10000BE50, symSize: 0x44 }
  - { offsetInCU: 0x25CA7, offset: 0x25CA7, size: 0x8, addend: 0x0, symName: __ZN3glm5tvec3IfLNS_9precisionE0EEC2Ev, symObjAddr: 0xAFC0, symBinAddr: 0x10000BEBC, symSize: 0x24 }
  - { offsetInCU: 0x25CD3, offset: 0x25CD3, size: 0x8, addend: 0x0, symName: __ZN3glm6detail11compute_dotINS_5tvec3EfLNS_9precisionE0EE4callERKNS2_IfLS3_0EEES7_, symObjAddr: 0xB040, symBinAddr: 0x10000BF3C, symSize: 0x44 }
  - { offsetInCU: 0x25D12, offset: 0x25D12, size: 0x8, addend: 0x0, symName: __ZNSt3__16vectorI6VertexNS_9allocatorIS1_EEEC2B8ue170006Ev, symObjAddr: 0xB110, symBinAddr: 0x10000C00C, symSize: 0x4C }
  - { offsetInCU: 0x25D3C, offset: 0x25D3C, size: 0x8, addend: 0x0, symName: __ZNSt3__117__compressed_pairIP6VertexNS_9allocatorIS1_EEEC1B8ue170006IDnNS_18__default_init_tagEEEOT_OT0_, symObjAddr: 0xB15C, symBinAddr: 0x10000C058, symSize: 0x3C }
  - { offsetInCU: 0x25D94, offset: 0x25D94, size: 0x8, addend: 0x0, symName: __ZNSt3__117__compressed_pairIP6VertexNS_9allocatorIS1_EEEC2B8ue170006IDnNS_18__default_init_tagEEEOT_OT0_, symObjAddr: 0xB198, symBinAddr: 0x10000C094, symSize: 0x40 }
  - { offsetInCU: 0x25DEC, offset: 0x25DEC, size: 0x8, addend: 0x0, symName: __ZNSt3__122__compressed_pair_elemINS_9allocatorI6VertexEELi1ELb1EEC2B8ue170006ENS_18__default_init_tagE, symObjAddr: 0xB1D8, symBinAddr: 0x10000C0D4, symSize: 0x2C }
  - { offsetInCU: 0x25E20, offset: 0x25E20, size: 0x8, addend: 0x0, symName: __ZNSt3__19allocatorI6VertexEC2B8ue170006Ev, symObjAddr: 0xB204, symBinAddr: 0x10000C100, symSize: 0x2C }
  - { offsetInCU: 0x25E4A, offset: 0x25E4A, size: 0x8, addend: 0x0, symName: __ZNSt3__116__non_trivial_ifILb1ENS_9allocatorI6VertexEEEC2B8ue170006Ev, symObjAddr: 0xB230, symBinAddr: 0x10000C12C, symSize: 0x14 }
  - { offsetInCU: 0x25E74, offset: 0x25E74, size: 0x8, addend: 0x0, symName: __ZNSt3__16vectorI4FaceNS_9allocatorIS1_EEEC2B8ue170006Ev, symObjAddr: 0xB244, symBinAddr: 0x10000C140, symSize: 0x4C }
  - { offsetInCU: 0x25E9E, offset: 0x25E9E, size: 0x8, addend: 0x0, symName: __ZNSt3__117__compressed_pairIP4FaceNS_9allocatorIS1_EEEC1B8ue170006IDnNS_18__default_init_tagEEEOT_OT0_, symObjAddr: 0xB290, symBinAddr: 0x10000C18C, symSize: 0x3C }
  - { offsetInCU: 0x25EF6, offset: 0x25EF6, size: 0x8, addend: 0x0, symName: __ZNSt3__117__compressed_pairIP4FaceNS_9allocatorIS1_EEEC2B8ue170006IDnNS_18__default_init_tagEEEOT_OT0_, symObjAddr: 0xB2CC, symBinAddr: 0x10000C1C8, symSize: 0x40 }
  - { offsetInCU: 0x25F4E, offset: 0x25F4E, size: 0x8, addend: 0x0, symName: __ZNSt3__122__compressed_pair_elemINS_9allocatorI4FaceEELi1ELb1EEC2B8ue170006ENS_18__default_init_tagE, symObjAddr: 0xB30C, symBinAddr: 0x10000C208, symSize: 0x2C }
  - { offsetInCU: 0x25F82, offset: 0x25F82, size: 0x8, addend: 0x0, symName: __ZNSt3__19allocatorI4FaceEC2B8ue170006Ev, symObjAddr: 0xB338, symBinAddr: 0x10000C234, symSize: 0x2C }
  - { offsetInCU: 0x25FAC, offset: 0x25FAC, size: 0x8, addend: 0x0, symName: __ZNSt3__116__non_trivial_ifILb1ENS_9allocatorI4FaceEEEC2B8ue170006Ev, symObjAddr: 0xB364, symBinAddr: 0x10000C260, symSize: 0x14 }
  - { offsetInCU: 0x25FD6, offset: 0x25FD6, size: 0x8, addend: 0x0, symName: __ZNSt3__16vectorI4FaceNS_9allocatorIS1_EEED2B8ue170006Ev, symObjAddr: 0xB378, symBinAddr: 0x10000C274, symSize: 0x44 }
  - { offsetInCU: 0x26000, offset: 0x26000, size: 0x8, addend: 0x0, symName: __ZNSt3__16vectorI4FaceNS_9allocatorIS1_EEE16__destroy_vectorC1B8ue170006ERS4_, symObjAddr: 0xB3BC, symBinAddr: 0x10000C2B8, symSize: 0x34 }
  - { offsetInCU: 0x26039, offset: 0x26039, size: 0x8, addend: 0x0, symName: __ZNSt3__16vectorI4FaceNS_9allocatorIS1_EEE16__destroy_vectorclB8ue170006Ev, symObjAddr: 0xB3F0, symBinAddr: 0x10000C2EC, symSize: 0x90 }
  - { offsetInCU: 0x2605F, offset: 0x2605F, size: 0x8, addend: 0x0, symName: __ZNSt3__16vectorI4FaceNS_9allocatorIS1_EEE16__destroy_vectorC2B8ue170006ERS4_, symObjAddr: 0xB480, symBinAddr: 0x10000C37C, symSize: 0x20 }
  - { offsetInCU: 0x26098, offset: 0x26098, size: 0x8, addend: 0x0, symName: __ZNSt3__16vectorI4FaceNS_9allocatorIS1_EEE7__clearB8ue170006Ev, symObjAddr: 0xB4A0, symBinAddr: 0x10000C39C, symSize: 0x28 }
  - { offsetInCU: 0x260BE, offset: 0x260BE, size: 0x8, addend: 0x0, symName: __ZNSt3__16vectorI4FaceNS_9allocatorIS1_EEE22__base_destruct_at_endB8ue170006EPS1_, symObjAddr: 0xB4C8, symBinAddr: 0x10000C3C4, symSize: 0x8C }
  - { offsetInCU: 0x26102, offset: 0x26102, size: 0x8, addend: 0x0, symName: __ZNSt3__16vectorI6NormalNS_9allocatorIS1_EEEC2B8ue170006Ev, symObjAddr: 0xB554, symBinAddr: 0x10000C450, symSize: 0x4C }
  - { offsetInCU: 0x2612C, offset: 0x2612C, size: 0x8, addend: 0x0, symName: __ZNSt3__117__compressed_pairIP6NormalNS_9allocatorIS1_EEEC1B8ue170006IDnNS_18__default_init_tagEEEOT_OT0_, symObjAddr: 0xB5A0, symBinAddr: 0x10000C49C, symSize: 0x3C }
  - { offsetInCU: 0x26184, offset: 0x26184, size: 0x8, addend: 0x0, symName: __ZNSt3__117__compressed_pairIP6NormalNS_9allocatorIS1_EEEC2B8ue170006IDnNS_18__default_init_tagEEEOT_OT0_, symObjAddr: 0xB5DC, symBinAddr: 0x10000C4D8, symSize: 0x40 }
  - { offsetInCU: 0x261DC, offset: 0x261DC, size: 0x8, addend: 0x0, symName: __ZNSt3__122__compressed_pair_elemIP6NormalLi0ELb0EEC2B8ue170006IDnvEEOT_, symObjAddr: 0xB61C, symBinAddr: 0x10000C518, symSize: 0x1C }
  - { offsetInCU: 0x2621E, offset: 0x2621E, size: 0x8, addend: 0x0, symName: __ZNSt3__122__compressed_pair_elemINS_9allocatorI6NormalEELi1ELb1EEC2B8ue170006ENS_18__default_init_tagE, symObjAddr: 0xB638, symBinAddr: 0x10000C534, symSize: 0x2C }
  - { offsetInCU: 0x26252, offset: 0x26252, size: 0x8, addend: 0x0, symName: __ZNSt3__19allocatorI6NormalEC2B8ue170006Ev, symObjAddr: 0xB664, symBinAddr: 0x10000C560, symSize: 0x2C }
  - { offsetInCU: 0x2627C, offset: 0x2627C, size: 0x8, addend: 0x0, symName: __ZNSt3__116__non_trivial_ifILb1ENS_9allocatorI6NormalEEEC2B8ue170006Ev, symObjAddr: 0xB690, symBinAddr: 0x10000C58C, symSize: 0x14 }
  - { offsetInCU: 0x262A6, offset: 0x262A6, size: 0x8, addend: 0x0, symName: __ZNSt3__16vectorI6NormalNS_9allocatorIS1_EEED2B8ue170006Ev, symObjAddr: 0xB6A4, symBinAddr: 0x10000C5A0, symSize: 0x44 }
  - { offsetInCU: 0x262D0, offset: 0x262D0, size: 0x8, addend: 0x0, symName: __ZNSt3__16vectorI6NormalNS_9allocatorIS1_EEE16__destroy_vectorC1B8ue170006ERS4_, symObjAddr: 0xB6E8, symBinAddr: 0x10000C5E4, symSize: 0x34 }
  - { offsetInCU: 0x26309, offset: 0x26309, size: 0x8, addend: 0x0, symName: __ZNSt3__16vectorI6NormalNS_9allocatorIS1_EEE16__destroy_vectorclB8ue170006Ev, symObjAddr: 0xB71C, symBinAddr: 0x10000C618, symSize: 0x90 }
  - { offsetInCU: 0x2632F, offset: 0x2632F, size: 0x8, addend: 0x0, symName: __ZNSt3__16vectorI6NormalNS_9allocatorIS1_EEE16__destroy_vectorC2B8ue170006ERS4_, symObjAddr: 0xB7AC, symBinAddr: 0x10000C6A8, symSize: 0x20 }
  - { offsetInCU: 0x26368, offset: 0x26368, size: 0x8, addend: 0x0, symName: __ZNSt3__16vectorI6NormalNS_9allocatorIS1_EEE7__clearB8ue170006Ev, symObjAddr: 0xB7CC, symBinAddr: 0x10000C6C8, symSize: 0x28 }
  - { offsetInCU: 0x2638E, offset: 0x2638E, size: 0x8, addend: 0x0, symName: __ZNKSt3__16vectorI6NormalNS_9allocatorIS1_EEE17__annotate_deleteB8ue170006Ev, symObjAddr: 0xB7F4, symBinAddr: 0x10000C6F0, symSize: 0xD4 }
  - { offsetInCU: 0x263B4, offset: 0x263B4, size: 0x8, addend: 0x0, symName: __ZNSt3__116allocator_traitsINS_9allocatorI6NormalEEE10deallocateB8ue170006ERS3_PS2_m, symObjAddr: 0xB8C8, symBinAddr: 0x10000C7C4, symSize: 0x34 }
  - { offsetInCU: 0x263F6, offset: 0x263F6, size: 0x8, addend: 0x0, symName: __ZNSt3__16vectorI6NormalNS_9allocatorIS1_EEE7__allocB8ue170006Ev, symObjAddr: 0xB8FC, symBinAddr: 0x10000C7F8, symSize: 0x28 }
  - { offsetInCU: 0x2641C, offset: 0x2641C, size: 0x8, addend: 0x0, symName: __ZNKSt3__16vectorI6NormalNS_9allocatorIS1_EEE8capacityB8ue170006Ev, symObjAddr: 0xB924, symBinAddr: 0x10000C820, symSize: 0x40 }
  - { offsetInCU: 0x26442, offset: 0x26442, size: 0x8, addend: 0x0, symName: __ZNSt3__16vectorI6NormalNS_9allocatorIS1_EEE22__base_destruct_at_endB8ue170006EPS1_, symObjAddr: 0xB964, symBinAddr: 0x10000C860, symSize: 0x8C }
  - { offsetInCU: 0x26486, offset: 0x26486, size: 0x8, addend: 0x0, symName: __ZNSt3__116allocator_traitsINS_9allocatorI6NormalEEE7destroyB8ue170006IS2_vEEvRS3_PT_, symObjAddr: 0xB9F0, symBinAddr: 0x10000C8EC, symSize: 0x2C }
  - { offsetInCU: 0x264C3, offset: 0x264C3, size: 0x8, addend: 0x0, symName: __ZNSt3__19allocatorI6NormalE7destroyB8ue170006EPS1_, symObjAddr: 0xBA30, symBinAddr: 0x10000C92C, symSize: 0x14 }
  - { offsetInCU: 0x264F7, offset: 0x264F7, size: 0x8, addend: 0x0, symName: __ZNKSt3__16vectorI6NormalNS_9allocatorIS1_EEE31__annotate_contiguous_containerB8ue170006EPKvS6_S6_S6_, symObjAddr: 0xBA44, symBinAddr: 0x10000C940, symSize: 0x20 }
  - { offsetInCU: 0x26549, offset: 0x26549, size: 0x8, addend: 0x0, symName: __ZNKSt3__16vectorI6NormalNS_9allocatorIS1_EEE4dataB8ue170006Ev, symObjAddr: 0xBA64, symBinAddr: 0x10000C960, symSize: 0x28 }
  - { offsetInCU: 0x2656F, offset: 0x2656F, size: 0x8, addend: 0x0, symName: __ZNSt3__19allocatorI6NormalE10deallocateB8ue170006EPS1_m, symObjAddr: 0xBA8C, symBinAddr: 0x10000C988, symSize: 0x44 }
  - { offsetInCU: 0x265B1, offset: 0x265B1, size: 0x8, addend: 0x0, symName: __ZNSt3__117__compressed_pairIP6NormalNS_9allocatorIS1_EEE6secondB8ue170006Ev, symObjAddr: 0xBAD0, symBinAddr: 0x10000C9CC, symSize: 0x24 }
  - { offsetInCU: 0x265D7, offset: 0x265D7, size: 0x8, addend: 0x0, symName: __ZNSt3__122__compressed_pair_elemINS_9allocatorI6NormalEELi1ELb1EE5__getB8ue170006Ev, symObjAddr: 0xBAF4, symBinAddr: 0x10000C9F0, symSize: 0x14 }
  - { offsetInCU: 0x265FD, offset: 0x265FD, size: 0x8, addend: 0x0, symName: __ZNKSt3__16vectorI6NormalNS_9allocatorIS1_EEE9__end_capB8ue170006Ev, symObjAddr: 0xBB08, symBinAddr: 0x10000CA04, symSize: 0x28 }
  - { offsetInCU: 0x26623, offset: 0x26623, size: 0x8, addend: 0x0, symName: __ZNKSt3__117__compressed_pairIP6NormalNS_9allocatorIS1_EEE5firstB8ue170006Ev, symObjAddr: 0xBB30, symBinAddr: 0x10000CA2C, symSize: 0x24 }
  - { offsetInCU: 0x26649, offset: 0x26649, size: 0x8, addend: 0x0, symName: __ZNKSt3__122__compressed_pair_elemIP6NormalLi0ELb0EE5__getB8ue170006Ev, symObjAddr: 0xBB54, symBinAddr: 0x10000CA50, symSize: 0x14 }
  - { offsetInCU: 0x2666F, offset: 0x2666F, size: 0x8, addend: 0x0, symName: __ZNSt3__16vectorI4FaceNS_9allocatorIS1_EEE11__make_iterB8ue170006EPS1_, symObjAddr: 0xBB68, symBinAddr: 0x10000CA64, symSize: 0x30 }
  - { offsetInCU: 0x266A4, offset: 0x266A4, size: 0x8, addend: 0x0, symName: __ZNSt3__111__wrap_iterIP4FaceEC1B8ue170006ES2_, symObjAddr: 0xBB98, symBinAddr: 0x10000CA94, symSize: 0x34 }
  - { offsetInCU: 0x266DC, offset: 0x266DC, size: 0x8, addend: 0x0, symName: __ZNSt3__111__wrap_iterIP4FaceEC2B8ue170006ES2_, symObjAddr: 0xBBCC, symBinAddr: 0x10000CAC8, symSize: 0x20 }
  - { offsetInCU: 0x26714, offset: 0x26714, size: 0x8, addend: 0x0, symName: __ZNSt3__16vectorI6NormalNS_9allocatorIS1_EEE9__end_capB8ue170006Ev, symObjAddr: 0xBBEC, symBinAddr: 0x10000CAE8, symSize: 0x28 }
  - { offsetInCU: 0x2673A, offset: 0x2673A, size: 0x8, addend: 0x0, symName: __ZNSt3__16vectorI6NormalNS_9allocatorIS1_EEE22__construct_one_at_endB8ue170006IJRKS1_EEEvDpOT_, symObjAddr: 0xBC14, symBinAddr: 0x10000CB10, symSize: 0x90 }
  - { offsetInCU: 0x26789, offset: 0x26789, size: 0x8, addend: 0x0, symName: __ZNSt3__16vectorI6NormalNS_9allocatorIS1_EEE21__push_back_slow_pathIRKS1_EEvOT_, symObjAddr: 0xBCA4, symBinAddr: 0x10000CBA0, symSize: 0xD8 }
  - { offsetInCU: 0x267E7, offset: 0x267E7, size: 0x8, addend: 0x0, symName: __ZNSt3__117__compressed_pairIP6NormalNS_9allocatorIS1_EEE5firstB8ue170006Ev, symObjAddr: 0xBD7C, symBinAddr: 0x10000CC78, symSize: 0x24 }
  - { offsetInCU: 0x2680D, offset: 0x2680D, size: 0x8, addend: 0x0, symName: __ZNSt3__122__compressed_pair_elemIP6NormalLi0ELb0EE5__getB8ue170006Ev, symObjAddr: 0xBDA0, symBinAddr: 0x10000CC9C, symSize: 0x14 }
  - { offsetInCU: 0x2684C, offset: 0x2684C, size: 0x8, addend: 0x0, symName: __ZNSt3__16vectorI6NormalNS_9allocatorIS1_EEE21_ConstructTransactionC1B8ue170006ERS4_m, symObjAddr: 0xBDB4, symBinAddr: 0x10000CCB0, symSize: 0x3C }
  - { offsetInCU: 0x26894, offset: 0x26894, size: 0x8, addend: 0x0, symName: __ZNSt3__116allocator_traitsINS_9allocatorI6NormalEEE9constructB8ue170006IS2_JRKS2_EvEEvRS3_PT_DpOT0_, symObjAddr: 0xBDF0, symBinAddr: 0x10000CCEC, symSize: 0x34 }
  - { offsetInCU: 0x268EB, offset: 0x268EB, size: 0x8, addend: 0x0, symName: __ZNSt3__16vectorI6NormalNS_9allocatorIS1_EEE21_ConstructTransactionD1B8ue170006Ev, symObjAddr: 0xBE24, symBinAddr: 0x10000CD20, symSize: 0x2C }
  - { offsetInCU: 0x26915, offset: 0x26915, size: 0x8, addend: 0x0, symName: __ZNSt3__16vectorI6NormalNS_9allocatorIS1_EEE21_ConstructTransactionC2B8ue170006ERS4_m, symObjAddr: 0xBE50, symBinAddr: 0x10000CD4C, symSize: 0x4C }
  - { offsetInCU: 0x2695D, offset: 0x2695D, size: 0x8, addend: 0x0, symName: __ZNSt3__19allocatorI6NormalE9constructB8ue170006IS1_JRKS1_EEEvPT_DpOT0_, symObjAddr: 0xBE9C, symBinAddr: 0x10000CD98, symSize: 0x30 }
  - { offsetInCU: 0x269B3, offset: 0x269B3, size: 0x8, addend: 0x0, symName: __ZNSt3__16vectorI6NormalNS_9allocatorIS1_EEE21_ConstructTransactionD2B8ue170006Ev, symObjAddr: 0xBECC, symBinAddr: 0x10000CDC8, symSize: 0x20 }
  - { offsetInCU: 0x269DD, offset: 0x269DD, size: 0x8, addend: 0x0, symName: __ZNKSt3__16vectorI6NormalNS_9allocatorIS1_EEE11__recommendB8ue170006Em, symObjAddr: 0xBEEC, symBinAddr: 0x10000CDE8, symSize: 0xB4 }
  - { offsetInCU: 0x26A32, offset: 0x26A32, size: 0x8, addend: 0x0, symName: __ZNSt3__114__split_bufferI6NormalRNS_9allocatorIS1_EEEC1EmmS4_, symObjAddr: 0xBFA0, symBinAddr: 0x10000CE9C, symSize: 0x44 }
  - { offsetInCU: 0x26A88, offset: 0x26A88, size: 0x8, addend: 0x0, symName: __ZNSt3__114__split_bufferI6NormalRNS_9allocatorIS1_EEED1Ev, symObjAddr: 0xC0F4, symBinAddr: 0x10000CFF0, symSize: 0x2C }
  - { offsetInCU: 0x26AB4, offset: 0x26AB4, size: 0x8, addend: 0x0, symName: __ZNKSt3__16vectorI6NormalNS_9allocatorIS1_EEE8max_sizeEv, symObjAddr: 0xC120, symBinAddr: 0x10000D01C, symSize: 0x60 }
  - { offsetInCU: 0x26ADC, offset: 0x26ADC, size: 0x8, addend: 0x0, symName: __ZNKSt3__16vectorI6NormalNS_9allocatorIS1_EEE20__throw_length_errorB8ue170006Ev, symObjAddr: 0xC180, symBinAddr: 0x10000D07C, symSize: 0x1C }
  - { offsetInCU: 0x26B0C, offset: 0x26B0C, size: 0x8, addend: 0x0, symName: __ZNSt3__116allocator_traitsINS_9allocatorI6NormalEEE8max_sizeB8ue170006IS3_vEEmRKS3_, symObjAddr: 0xC19C, symBinAddr: 0x10000D098, symSize: 0x24 }
  - { offsetInCU: 0x26B3A, offset: 0x26B3A, size: 0x8, addend: 0x0, symName: __ZNKSt3__16vectorI6NormalNS_9allocatorIS1_EEE7__allocB8ue170006Ev, symObjAddr: 0xC1C0, symBinAddr: 0x10000D0BC, symSize: 0x28 }
  - { offsetInCU: 0x26B60, offset: 0x26B60, size: 0x8, addend: 0x0, symName: __ZNKSt3__19allocatorI6NormalE8max_sizeB8ue170006Ev, symObjAddr: 0xC1E8, symBinAddr: 0x10000D0E4, symSize: 0x18 }
  - { offsetInCU: 0x26B86, offset: 0x26B86, size: 0x8, addend: 0x0, symName: __ZNKSt3__117__compressed_pairIP6NormalNS_9allocatorIS1_EEE6secondB8ue170006Ev, symObjAddr: 0xC200, symBinAddr: 0x10000D0FC, symSize: 0x24 }
  - { offsetInCU: 0x26BAC, offset: 0x26BAC, size: 0x8, addend: 0x0, symName: __ZNKSt3__122__compressed_pair_elemINS_9allocatorI6NormalEELi1ELb1EE5__getB8ue170006Ev, symObjAddr: 0xC224, symBinAddr: 0x10000D120, symSize: 0x14 }
  - { offsetInCU: 0x26BD2, offset: 0x26BD2, size: 0x8, addend: 0x0, symName: __ZNSt3__114__split_bufferI6NormalRNS_9allocatorIS1_EEEC2EmmS4_, symObjAddr: 0xC238, symBinAddr: 0x10000D134, symSize: 0xE0 }
  - { offsetInCU: 0x26C45, offset: 0x26C45, size: 0x8, addend: 0x0, symName: __ZNSt3__117__compressed_pairIP6NormalRNS_9allocatorIS1_EEEC1B8ue170006IDnS5_EEOT_OT0_, symObjAddr: 0xC318, symBinAddr: 0x10000D214, symSize: 0x3C }
  - { offsetInCU: 0x26C9D, offset: 0x26C9D, size: 0x8, addend: 0x0, symName: __ZNSt3__114__split_bufferI6NormalRNS_9allocatorIS1_EEE7__allocB8ue170006Ev, symObjAddr: 0xC394, symBinAddr: 0x10000D290, symSize: 0x28 }
  - { offsetInCU: 0x26CC3, offset: 0x26CC3, size: 0x8, addend: 0x0, symName: __ZNSt3__114__split_bufferI6NormalRNS_9allocatorIS1_EEE9__end_capB8ue170006Ev, symObjAddr: 0xC3BC, symBinAddr: 0x10000D2B8, symSize: 0x28 }
  - { offsetInCU: 0x26CE9, offset: 0x26CE9, size: 0x8, addend: 0x0, symName: __ZNSt3__117__compressed_pairIP6NormalRNS_9allocatorIS1_EEEC2B8ue170006IDnS5_EEOT_OT0_, symObjAddr: 0xC3E4, symBinAddr: 0x10000D2E0, symSize: 0x48 }
  - { offsetInCU: 0x26D41, offset: 0x26D41, size: 0x8, addend: 0x0, symName: __ZNSt3__122__compressed_pair_elemIRNS_9allocatorI6NormalEELi1ELb0EEC2B8ue170006IS4_vEEOT_, symObjAddr: 0xC42C, symBinAddr: 0x10000D328, symSize: 0x20 }
  - { offsetInCU: 0x26D83, offset: 0x26D83, size: 0x8, addend: 0x0, symName: __ZNSt3__19allocatorI6NormalE8allocateB8ue170006Em, symObjAddr: 0xC44C, symBinAddr: 0x10000D348, symSize: 0x5C }
  - { offsetInCU: 0x26DB7, offset: 0x26DB7, size: 0x8, addend: 0x0, symName: __ZNSt3__117__compressed_pairIP6NormalRNS_9allocatorIS1_EEE6secondB8ue170006Ev, symObjAddr: 0xC4A8, symBinAddr: 0x10000D3A4, symSize: 0x28 }
  - { offsetInCU: 0x26DDD, offset: 0x26DDD, size: 0x8, addend: 0x0, symName: __ZNSt3__122__compressed_pair_elemIRNS_9allocatorI6NormalEELi1ELb0EE5__getB8ue170006Ev, symObjAddr: 0xC4D0, symBinAddr: 0x10000D3CC, symSize: 0x18 }
  - { offsetInCU: 0x26E03, offset: 0x26E03, size: 0x8, addend: 0x0, symName: __ZNSt3__117__compressed_pairIP6NormalRNS_9allocatorIS1_EEE5firstB8ue170006Ev, symObjAddr: 0xC4E8, symBinAddr: 0x10000D3E4, symSize: 0x24 }
  - { offsetInCU: 0x26E29, offset: 0x26E29, size: 0x8, addend: 0x0, symName: __ZNSt3__116reverse_iteratorIP6NormalEC1B8ue170006ES2_, symObjAddr: 0xC584, symBinAddr: 0x10000D480, symSize: 0x34 }
  - { offsetInCU: 0x26E61, offset: 0x26E61, size: 0x8, addend: 0x0, symName: __ZNKSt3__116reverse_iteratorIP6NormalE4baseB8ue170006Ev, symObjAddr: 0xC5B8, symBinAddr: 0x10000D4B4, symSize: 0x18 }
  - { offsetInCU: 0x26E87, offset: 0x26E87, size: 0x8, addend: 0x0, symName: __ZNKSt3__16vectorI6NormalNS_9allocatorIS1_EEE14__annotate_newB8ue170006Em, symObjAddr: 0xC60C, symBinAddr: 0x10000D508, symSize: 0xC8 }
  - { offsetInCU: 0x26ED6, offset: 0x26ED6, size: 0x8, addend: 0x0, symName: __ZNKSt3__111__move_loopINS_17_ClassicAlgPolicyEEclB8ue170006INS_16reverse_iteratorIP6NormalEES7_S7_EENS_4pairIT_T1_EES9_T0_SA_, symObjAddr: 0xC9C4, symBinAddr: 0x10000D8C0, symSize: 0xA8 }
  - { offsetInCU: 0x26F47, offset: 0x26F47, size: 0x8, addend: 0x0, symName: __ZNSt3__18_IterOpsINS_17_ClassicAlgPolicyEE11__iter_moveB8ue170006IRNS_16reverse_iteratorIP6NormalEEEENS_9enable_ifIXsr12is_referenceIDTdeclsr3stdE7declvalIRT_EEEEE5valueEDTclsr3stdE4movedeclsr3stdE7declvalISB_EEEEE4typeEOSA_, symObjAddr: 0xCC00, symBinAddr: 0x10000DAFC, symSize: 0x28 }
  - { offsetInCU: 0x26F73, offset: 0x26F73, size: 0x8, addend: 0x0, symName: __ZNKSt3__116reverse_iteratorIP6NormalEdeB8ue170006Ev, symObjAddr: 0xCC28, symBinAddr: 0x10000DB24, symSize: 0x28 }
  - { offsetInCU: 0x26FA7, offset: 0x26FA7, size: 0x8, addend: 0x0, symName: __ZNSt3__116reverse_iteratorIP6NormalEppB8ue170006Ev, symObjAddr: 0xCC50, symBinAddr: 0x10000DB4C, symSize: 0x20 }
  - { offsetInCU: 0x26FCD, offset: 0x26FCD, size: 0x8, addend: 0x0, symName: __ZNSt3__18_IterOpsINS_17_ClassicAlgPolicyEE25__validate_iter_referenceB8ue170006IRNS_16reverse_iteratorIP6NormalEEEEvv, symObjAddr: 0xCC70, symBinAddr: 0x10000DB6C, symSize: 0x4 }
  - { offsetInCU: 0x26FEB, offset: 0x26FEB, size: 0x8, addend: 0x0, symName: __ZNSt3__118__unwrap_iter_implINS_16reverse_iteratorIP6NormalEELb0EE8__unwrapB8ue170006ES4_, symObjAddr: 0xCC74, symBinAddr: 0x10000DB70, symSize: 0x24 }
  - { offsetInCU: 0x27014, offset: 0x27014, size: 0x8, addend: 0x0, symName: __ZNSt3__14pairINS_16reverse_iteratorIP6NormalEES4_EC1B8ue170006IS4_S4_LPv0EEEOT_OT0_, symObjAddr: 0xCC98, symBinAddr: 0x10000DB94, symSize: 0x3C }
  - { offsetInCU: 0x27072, offset: 0x27072, size: 0x8, addend: 0x0, symName: __ZNSt3__14pairINS_16reverse_iteratorIP6NormalEES4_EC2B8ue170006IS4_S4_LPv0EEEOT_OT0_, symObjAddr: 0xCCD4, symBinAddr: 0x10000DBD0, symSize: 0x34 }
  - { offsetInCU: 0x270D0, offset: 0x270D0, size: 0x8, addend: 0x0, symName: __ZNSt3__118__unwrap_iter_implINS_16reverse_iteratorIP6NormalEELb0EE8__rewrapB8ue170006ES4_S4_, symObjAddr: 0xCD08, symBinAddr: 0x10000DC04, symSize: 0x2C }
  - { offsetInCU: 0x270FD, offset: 0x270FD, size: 0x8, addend: 0x0, symName: __ZNSt3__116reverse_iteratorIP6NormalEC2B8ue170006ES2_, symObjAddr: 0xCD34, symBinAddr: 0x10000DC30, symSize: 0x28 }
  - { offsetInCU: 0x27135, offset: 0x27135, size: 0x8, addend: 0x0, symName: __ZNSt3__114__split_bufferI6NormalRNS_9allocatorIS1_EEED2Ev, symObjAddr: 0xCD5C, symBinAddr: 0x10000DC58, symSize: 0x8C }
  - { offsetInCU: 0x27161, offset: 0x27161, size: 0x8, addend: 0x0, symName: __ZNSt3__114__split_bufferI6NormalRNS_9allocatorIS1_EEE5clearB8ue170006Ev, symObjAddr: 0xCDE8, symBinAddr: 0x10000DCE4, symSize: 0x28 }
  - { offsetInCU: 0x27187, offset: 0x27187, size: 0x8, addend: 0x0, symName: __ZNKSt3__114__split_bufferI6NormalRNS_9allocatorIS1_EEE8capacityB8ue170006Ev, symObjAddr: 0xCE10, symBinAddr: 0x10000DD0C, symSize: 0x40 }
  - { offsetInCU: 0x271AD, offset: 0x271AD, size: 0x8, addend: 0x0, symName: __ZNSt3__114__split_bufferI6NormalRNS_9allocatorIS1_EEE17__destruct_at_endB8ue170006EPS1_, symObjAddr: 0xCE50, symBinAddr: 0x10000DD4C, symSize: 0x2C }
  - { offsetInCU: 0x271E1, offset: 0x271E1, size: 0x8, addend: 0x0, symName: __ZNSt3__114__split_bufferI6NormalRNS_9allocatorIS1_EEE17__destruct_at_endB8ue170006EPS1_NS_17integral_constantIbLb0EEE, symObjAddr: 0xCE7C, symBinAddr: 0x10000DD78, symSize: 0x80 }
  - { offsetInCU: 0x27221, offset: 0x27221, size: 0x8, addend: 0x0, symName: __ZNKSt3__114__split_bufferI6NormalRNS_9allocatorIS1_EEE9__end_capB8ue170006Ev, symObjAddr: 0xCEFC, symBinAddr: 0x10000DDF8, symSize: 0x28 }
  - { offsetInCU: 0x27247, offset: 0x27247, size: 0x8, addend: 0x0, symName: __ZNKSt3__117__compressed_pairIP6NormalRNS_9allocatorIS1_EEE5firstB8ue170006Ev, symObjAddr: 0xCF24, symBinAddr: 0x10000DE20, symSize: 0x24 }
  - { offsetInCU: 0x2726D, offset: 0x2726D, size: 0x8, addend: 0x0, symName: __ZNSt3__16vectorI6NormalNS_9allocatorIS1_EEEC2EmRKS1_, symObjAddr: 0xCF48, symBinAddr: 0x10000DE44, symSize: 0xDC }
  - { offsetInCU: 0x272CC, offset: 0x272CC, size: 0x8, addend: 0x0, symName: __ZNSt3__16vectorI6NormalNS_9allocatorIS1_EEE11__vallocateB8ue170006Em, symObjAddr: 0xD064, symBinAddr: 0x10000DF60, symSize: 0xB4 }
  - { offsetInCU: 0x27310, offset: 0x27310, size: 0x8, addend: 0x0, symName: __ZNSt3__16vectorI6NormalNS_9allocatorIS1_EEE18__construct_at_endEmRKS1_, symObjAddr: 0xD118, symBinAddr: 0x10000E014, symSize: 0xD0 }
  - { offsetInCU: 0x27391, offset: 0x27391, size: 0x8, addend: 0x0, symName: __ZNSt3__128__exception_guard_exceptionsINS_6vectorI6NormalNS_9allocatorIS2_EEE16__destroy_vectorEE10__completeB8ue170006Ev, symObjAddr: 0xD1E8, symBinAddr: 0x10000E0E4, symSize: 0x1C }
  - { offsetInCU: 0x273B7, offset: 0x273B7, size: 0x8, addend: 0x0, symName: __ZNSt3__128__exception_guard_exceptionsINS_6vectorI6NormalNS_9allocatorIS2_EEE16__destroy_vectorEED1B8ue170006Ev, symObjAddr: 0xD204, symBinAddr: 0x10000E100, symSize: 0x2C }
  - { offsetInCU: 0x273E1, offset: 0x273E1, size: 0x8, addend: 0x0, symName: __ZNSt3__128__exception_guard_exceptionsINS_6vectorI6NormalNS_9allocatorIS2_EEE16__destroy_vectorEEC1B8ue170006ES6_, symObjAddr: 0xD230, symBinAddr: 0x10000E12C, symSize: 0x34 }
  - { offsetInCU: 0x27419, offset: 0x27419, size: 0x8, addend: 0x0, symName: __ZNSt3__128__exception_guard_exceptionsINS_6vectorI6NormalNS_9allocatorIS2_EEE16__destroy_vectorEEC2B8ue170006ES6_, symObjAddr: 0xD264, symBinAddr: 0x10000E160, symSize: 0x24 }
  - { offsetInCU: 0x27451, offset: 0x27451, size: 0x8, addend: 0x0, symName: __ZNSt3__128__exception_guard_exceptionsINS_6vectorI6NormalNS_9allocatorIS2_EEE16__destroy_vectorEED2B8ue170006Ev, symObjAddr: 0xD288, symBinAddr: 0x10000E184, symSize: 0x48 }
  - { offsetInCU: 0x2747B, offset: 0x2747B, size: 0x8, addend: 0x0, symName: __ZNSt3__16vectorIiNS_9allocatorIiEEEC2EmRKi, symObjAddr: 0xD2D0, symBinAddr: 0x10000E1CC, symSize: 0xDC }
  - { offsetInCU: 0x274DA, offset: 0x274DA, size: 0x8, addend: 0x0, symName: __ZNSt3__117__compressed_pairIPiNS_9allocatorIiEEEC1B8ue170006IDnNS_18__default_init_tagEEEOT_OT0_, symObjAddr: 0xD3AC, symBinAddr: 0x10000E2A8, symSize: 0x3C }
  - { offsetInCU: 0x27532, offset: 0x27532, size: 0x8, addend: 0x0, symName: __ZNSt3__16vectorIiNS_9allocatorIiEEE16__destroy_vectorC1B8ue170006ERS3_, symObjAddr: 0xD428, symBinAddr: 0x10000E324, symSize: 0x34 }
  - { offsetInCU: 0x2756B, offset: 0x2756B, size: 0x8, addend: 0x0, symName: __ZNSt3__16vectorIiNS_9allocatorIiEEE11__vallocateB8ue170006Em, symObjAddr: 0xD45C, symBinAddr: 0x10000E358, symSize: 0xAC }
  - { offsetInCU: 0x275AF, offset: 0x275AF, size: 0x8, addend: 0x0, symName: __ZNSt3__16vectorIiNS_9allocatorIiEEE18__construct_at_endEmRKi, symObjAddr: 0xD508, symBinAddr: 0x10000E404, symSize: 0xD0 }
  - { offsetInCU: 0x27630, offset: 0x27630, size: 0x8, addend: 0x0, symName: __ZNSt3__128__exception_guard_exceptionsINS_6vectorIiNS_9allocatorIiEEE16__destroy_vectorEE10__completeB8ue170006Ev, symObjAddr: 0xD5D8, symBinAddr: 0x10000E4D4, symSize: 0x1C }
  - { offsetInCU: 0x27656, offset: 0x27656, size: 0x8, addend: 0x0, symName: __ZNSt3__128__exception_guard_exceptionsINS_6vectorIiNS_9allocatorIiEEE16__destroy_vectorEED1B8ue170006Ev, symObjAddr: 0xD5F4, symBinAddr: 0x10000E4F0, symSize: 0x2C }
  - { offsetInCU: 0x27680, offset: 0x27680, size: 0x8, addend: 0x0, symName: __ZNSt3__117__compressed_pairIPiNS_9allocatorIiEEEC2B8ue170006IDnNS_18__default_init_tagEEEOT_OT0_, symObjAddr: 0xD620, symBinAddr: 0x10000E51C, symSize: 0x40 }
  - { offsetInCU: 0x276D8, offset: 0x276D8, size: 0x8, addend: 0x0, symName: __ZNSt3__122__compressed_pair_elemIPiLi0ELb0EEC2B8ue170006IDnvEEOT_, symObjAddr: 0xD660, symBinAddr: 0x10000E55C, symSize: 0x1C }
  - { offsetInCU: 0x2771A, offset: 0x2771A, size: 0x8, addend: 0x0, symName: __ZNSt3__122__compressed_pair_elemINS_9allocatorIiEELi1ELb1EEC2B8ue170006ENS_18__default_init_tagE, symObjAddr: 0xD67C, symBinAddr: 0x10000E578, symSize: 0x2C }
  - { offsetInCU: 0x2774E, offset: 0x2774E, size: 0x8, addend: 0x0, symName: __ZNSt3__19allocatorIiEC2B8ue170006Ev, symObjAddr: 0xD6A8, symBinAddr: 0x10000E5A4, symSize: 0x2C }
  - { offsetInCU: 0x27778, offset: 0x27778, size: 0x8, addend: 0x0, symName: __ZNSt3__116__non_trivial_ifILb1ENS_9allocatorIiEEEC2B8ue170006Ev, symObjAddr: 0xD6D4, symBinAddr: 0x10000E5D0, symSize: 0x14 }
  - { offsetInCU: 0x277A2, offset: 0x277A2, size: 0x8, addend: 0x0, symName: __ZNSt3__128__exception_guard_exceptionsINS_6vectorIiNS_9allocatorIiEEE16__destroy_vectorEEC1B8ue170006ES5_, symObjAddr: 0xD6E8, symBinAddr: 0x10000E5E4, symSize: 0x34 }
  - { offsetInCU: 0x277DA, offset: 0x277DA, size: 0x8, addend: 0x0, symName: __ZNSt3__128__exception_guard_exceptionsINS_6vectorIiNS_9allocatorIiEEE16__destroy_vectorEEC2B8ue170006ES5_, symObjAddr: 0xD71C, symBinAddr: 0x10000E618, symSize: 0x24 }
  - { offsetInCU: 0x27812, offset: 0x27812, size: 0x8, addend: 0x0, symName: __ZNSt3__16vectorIiNS_9allocatorIiEEE16__destroy_vectorC2B8ue170006ERS3_, symObjAddr: 0xD740, symBinAddr: 0x10000E63C, symSize: 0x20 }
  - { offsetInCU: 0x2784B, offset: 0x2784B, size: 0x8, addend: 0x0, symName: __ZNKSt3__16vectorIiNS_9allocatorIiEEE8max_sizeEv, symObjAddr: 0xD760, symBinAddr: 0x10000E65C, symSize: 0x60 }
  - { offsetInCU: 0x27873, offset: 0x27873, size: 0x8, addend: 0x0, symName: __ZNKSt3__16vectorIiNS_9allocatorIiEEE20__throw_length_errorB8ue170006Ev, symObjAddr: 0xD7C0, symBinAddr: 0x10000E6BC, symSize: 0x1C }
  - { offsetInCU: 0x27899, offset: 0x27899, size: 0x8, addend: 0x0, symName: __ZNSt3__16vectorIiNS_9allocatorIiEEE7__allocB8ue170006Ev, symObjAddr: 0xD81C, symBinAddr: 0x10000E718, symSize: 0x28 }
  - { offsetInCU: 0x278BF, offset: 0x278BF, size: 0x8, addend: 0x0, symName: __ZNSt3__16vectorIiNS_9allocatorIiEEE9__end_capB8ue170006Ev, symObjAddr: 0xD844, symBinAddr: 0x10000E740, symSize: 0x28 }
  - { offsetInCU: 0x278E5, offset: 0x278E5, size: 0x8, addend: 0x0, symName: __ZNKSt3__16vectorIiNS_9allocatorIiEEE14__annotate_newB8ue170006Em, symObjAddr: 0xD86C, symBinAddr: 0x10000E768, symSize: 0xAC }
  - { offsetInCU: 0x27924, offset: 0x27924, size: 0x8, addend: 0x0, symName: __ZNSt3__116allocator_traitsINS_9allocatorIiEEE8max_sizeB8ue170006IS2_vEEmRKS2_, symObjAddr: 0xD918, symBinAddr: 0x10000E814, symSize: 0x24 }
  - { offsetInCU: 0x27952, offset: 0x27952, size: 0x8, addend: 0x0, symName: __ZNKSt3__16vectorIiNS_9allocatorIiEEE7__allocB8ue170006Ev, symObjAddr: 0xD93C, symBinAddr: 0x10000E838, symSize: 0x28 }
  - { offsetInCU: 0x27978, offset: 0x27978, size: 0x8, addend: 0x0, symName: __ZNKSt3__19allocatorIiE8max_sizeB8ue170006Ev, symObjAddr: 0xD964, symBinAddr: 0x10000E860, symSize: 0x14 }
  - { offsetInCU: 0x2799E, offset: 0x2799E, size: 0x8, addend: 0x0, symName: __ZNKSt3__117__compressed_pairIPiNS_9allocatorIiEEE6secondB8ue170006Ev, symObjAddr: 0xD978, symBinAddr: 0x10000E874, symSize: 0x24 }
  - { offsetInCU: 0x279C4, offset: 0x279C4, size: 0x8, addend: 0x0, symName: __ZNKSt3__122__compressed_pair_elemINS_9allocatorIiEELi1ELb1EE5__getB8ue170006Ev, symObjAddr: 0xD99C, symBinAddr: 0x10000E898, symSize: 0x14 }
  - { offsetInCU: 0x279EA, offset: 0x279EA, size: 0x8, addend: 0x0, symName: __ZNSt3__19allocatorIiE8allocateB8ue170006Em, symObjAddr: 0xD9B0, symBinAddr: 0x10000E8AC, symSize: 0x58 }
  - { offsetInCU: 0x27A1E, offset: 0x27A1E, size: 0x8, addend: 0x0, symName: __ZNSt3__117__compressed_pairIPiNS_9allocatorIiEEE6secondB8ue170006Ev, symObjAddr: 0xDA08, symBinAddr: 0x10000E904, symSize: 0x24 }
  - { offsetInCU: 0x27A44, offset: 0x27A44, size: 0x8, addend: 0x0, symName: __ZNSt3__122__compressed_pair_elemINS_9allocatorIiEELi1ELb1EE5__getB8ue170006Ev, symObjAddr: 0xDA2C, symBinAddr: 0x10000E928, symSize: 0x14 }
  - { offsetInCU: 0x27A6A, offset: 0x27A6A, size: 0x8, addend: 0x0, symName: __ZNSt3__117__compressed_pairIPiNS_9allocatorIiEEE5firstB8ue170006Ev, symObjAddr: 0xDA40, symBinAddr: 0x10000E93C, symSize: 0x24 }
  - { offsetInCU: 0x27A90, offset: 0x27A90, size: 0x8, addend: 0x0, symName: __ZNSt3__122__compressed_pair_elemIPiLi0ELb0EE5__getB8ue170006Ev, symObjAddr: 0xDA64, symBinAddr: 0x10000E960, symSize: 0x14 }
  - { offsetInCU: 0x27AB6, offset: 0x27AB6, size: 0x8, addend: 0x0, symName: __ZNKSt3__16vectorIiNS_9allocatorIiEEE31__annotate_contiguous_containerB8ue170006EPKvS5_S5_S5_, symObjAddr: 0xDA78, symBinAddr: 0x10000E974, symSize: 0x20 }
  - { offsetInCU: 0x27B08, offset: 0x27B08, size: 0x8, addend: 0x0, symName: __ZNKSt3__16vectorIiNS_9allocatorIiEEE4dataB8ue170006Ev, symObjAddr: 0xDA98, symBinAddr: 0x10000E994, symSize: 0x28 }
  - { offsetInCU: 0x27B2E, offset: 0x27B2E, size: 0x8, addend: 0x0, symName: __ZNKSt3__16vectorIiNS_9allocatorIiEEE8capacityB8ue170006Ev, symObjAddr: 0xDAC0, symBinAddr: 0x10000E9BC, symSize: 0x40 }
  - { offsetInCU: 0x27B54, offset: 0x27B54, size: 0x8, addend: 0x0, symName: __ZNKSt3__16vectorIiNS_9allocatorIiEEE9__end_capB8ue170006Ev, symObjAddr: 0xDB14, symBinAddr: 0x10000EA10, symSize: 0x28 }
  - { offsetInCU: 0x27B7A, offset: 0x27B7A, size: 0x8, addend: 0x0, symName: __ZNKSt3__117__compressed_pairIPiNS_9allocatorIiEEE5firstB8ue170006Ev, symObjAddr: 0xDB3C, symBinAddr: 0x10000EA38, symSize: 0x24 }
  - { offsetInCU: 0x27BA0, offset: 0x27BA0, size: 0x8, addend: 0x0, symName: __ZNKSt3__122__compressed_pair_elemIPiLi0ELb0EE5__getB8ue170006Ev, symObjAddr: 0xDB60, symBinAddr: 0x10000EA5C, symSize: 0x14 }
  - { offsetInCU: 0x27BDF, offset: 0x27BDF, size: 0x8, addend: 0x0, symName: __ZNSt3__16vectorIiNS_9allocatorIiEEE21_ConstructTransactionC1B8ue170006ERS3_m, symObjAddr: 0xDB74, symBinAddr: 0x10000EA70, symSize: 0x3C }
  - { offsetInCU: 0x27C27, offset: 0x27C27, size: 0x8, addend: 0x0, symName: __ZNSt3__116allocator_traitsINS_9allocatorIiEEE9constructB8ue170006IiJRKiEvEEvRS2_PT_DpOT0_, symObjAddr: 0xDBB0, symBinAddr: 0x10000EAAC, symSize: 0x34 }
  - { offsetInCU: 0x27C7E, offset: 0x27C7E, size: 0x8, addend: 0x0, symName: __ZNSt3__16vectorIiNS_9allocatorIiEEE21_ConstructTransactionD1B8ue170006Ev, symObjAddr: 0xDBE4, symBinAddr: 0x10000EAE0, symSize: 0x2C }
  - { offsetInCU: 0x27CA8, offset: 0x27CA8, size: 0x8, addend: 0x0, symName: __ZNSt3__16vectorIiNS_9allocatorIiEEE21_ConstructTransactionC2B8ue170006ERS3_m, symObjAddr: 0xDC10, symBinAddr: 0x10000EB0C, symSize: 0x44 }
  - { offsetInCU: 0x27CF0, offset: 0x27CF0, size: 0x8, addend: 0x0, symName: __ZNSt3__19allocatorIiE9constructB8ue170006IiJRKiEEEvPT_DpOT0_, symObjAddr: 0xDC54, symBinAddr: 0x10000EB50, symSize: 0x28 }
  - { offsetInCU: 0x27D46, offset: 0x27D46, size: 0x8, addend: 0x0, symName: __ZNSt3__16vectorIiNS_9allocatorIiEEE21_ConstructTransactionD2B8ue170006Ev, symObjAddr: 0xDC7C, symBinAddr: 0x10000EB78, symSize: 0x20 }
  - { offsetInCU: 0x27D70, offset: 0x27D70, size: 0x8, addend: 0x0, symName: __ZNSt3__128__exception_guard_exceptionsINS_6vectorIiNS_9allocatorIiEEE16__destroy_vectorEED2B8ue170006Ev, symObjAddr: 0xDC9C, symBinAddr: 0x10000EB98, symSize: 0x50 }
  - { offsetInCU: 0x27D9A, offset: 0x27D9A, size: 0x8, addend: 0x0, symName: __ZNSt3__16vectorIiNS_9allocatorIiEEE16__destroy_vectorclB8ue170006Ev, symObjAddr: 0xDCEC, symBinAddr: 0x10000EBE8, symSize: 0x90 }
  - { offsetInCU: 0x27DC0, offset: 0x27DC0, size: 0x8, addend: 0x0, symName: __ZNSt3__16vectorIiNS_9allocatorIiEEE7__clearB8ue170006Ev, symObjAddr: 0xDD7C, symBinAddr: 0x10000EC78, symSize: 0x28 }
  - { offsetInCU: 0x27DE6, offset: 0x27DE6, size: 0x8, addend: 0x0, symName: __ZNKSt3__16vectorIiNS_9allocatorIiEEE17__annotate_deleteB8ue170006Ev, symObjAddr: 0xDDA4, symBinAddr: 0x10000ECA0, symSize: 0xB8 }
  - { offsetInCU: 0x27E0C, offset: 0x27E0C, size: 0x8, addend: 0x0, symName: __ZNSt3__116allocator_traitsINS_9allocatorIiEEE10deallocateB8ue170006ERS2_Pim, symObjAddr: 0xDE5C, symBinAddr: 0x10000ED58, symSize: 0x34 }
  - { offsetInCU: 0x27E4E, offset: 0x27E4E, size: 0x8, addend: 0x0, symName: __ZNSt3__16vectorIiNS_9allocatorIiEEE22__base_destruct_at_endB8ue170006EPi, symObjAddr: 0xDE90, symBinAddr: 0x10000ED8C, symSize: 0x8C }
  - { offsetInCU: 0x27E92, offset: 0x27E92, size: 0x8, addend: 0x0, symName: __ZNSt3__116allocator_traitsINS_9allocatorIiEEE7destroyB8ue170006IivEEvRS2_PT_, symObjAddr: 0xDF1C, symBinAddr: 0x10000EE18, symSize: 0x2C }
  - { offsetInCU: 0x27ECF, offset: 0x27ECF, size: 0x8, addend: 0x0, symName: __ZNSt3__19allocatorIiE7destroyB8ue170006EPi, symObjAddr: 0xDF48, symBinAddr: 0x10000EE44, symSize: 0x14 }
  - { offsetInCU: 0x27F03, offset: 0x27F03, size: 0x8, addend: 0x0, symName: __ZNKSt3__16vectorIiNS_9allocatorIiEEE4sizeB8ue170006Ev, symObjAddr: 0xDF5C, symBinAddr: 0x10000EE58, symSize: 0x28 }
  - { offsetInCU: 0x27F29, offset: 0x27F29, size: 0x8, addend: 0x0, symName: __ZNSt3__19allocatorIiE10deallocateB8ue170006EPim, symObjAddr: 0xDF84, symBinAddr: 0x10000EE80, symSize: 0x40 }
  - { offsetInCU: 0x27F6B, offset: 0x27F6B, size: 0x8, addend: 0x0, symName: __ZNSt3__16vectorIiNS_9allocatorIiEEED2B8ue170006Ev, symObjAddr: 0xDFC4, symBinAddr: 0x10000EEC0, symSize: 0x40 }
  - { offsetInCU: 0x27F95, offset: 0x27F95, size: 0x8, addend: 0x0, symName: __ZNSt3__16vectorIfNS_9allocatorIfEEEC2B8ue170006Ev, symObjAddr: 0xE004, symBinAddr: 0x10000EF00, symSize: 0x4C }
  - { offsetInCU: 0x27FBF, offset: 0x27FBF, size: 0x8, addend: 0x0, symName: __ZNSt3__117__compressed_pairIPfNS_9allocatorIfEEEC1B8ue170006IDnNS_18__default_init_tagEEEOT_OT0_, symObjAddr: 0xE050, symBinAddr: 0x10000EF4C, symSize: 0x3C }
  - { offsetInCU: 0x28017, offset: 0x28017, size: 0x8, addend: 0x0, symName: __ZNSt3__117__compressed_pairIPfNS_9allocatorIfEEEC2B8ue170006IDnNS_18__default_init_tagEEEOT_OT0_, symObjAddr: 0xE08C, symBinAddr: 0x10000EF88, symSize: 0x40 }
  - { offsetInCU: 0x2806F, offset: 0x2806F, size: 0x8, addend: 0x0, symName: __ZNSt3__122__compressed_pair_elemIPfLi0ELb0EEC2B8ue170006IDnvEEOT_, symObjAddr: 0xE0CC, symBinAddr: 0x10000EFC8, symSize: 0x1C }
  - { offsetInCU: 0x280B1, offset: 0x280B1, size: 0x8, addend: 0x0, symName: __ZNSt3__122__compressed_pair_elemINS_9allocatorIfEELi1ELb1EEC2B8ue170006ENS_18__default_init_tagE, symObjAddr: 0xE0E8, symBinAddr: 0x10000EFE4, symSize: 0x2C }
  - { offsetInCU: 0x280E5, offset: 0x280E5, size: 0x8, addend: 0x0, symName: __ZNSt3__19allocatorIfEC2B8ue170006Ev, symObjAddr: 0xE114, symBinAddr: 0x10000F010, symSize: 0x2C }
  - { offsetInCU: 0x2810F, offset: 0x2810F, size: 0x8, addend: 0x0, symName: __ZNSt3__116__non_trivial_ifILb1ENS_9allocatorIfEEEC2B8ue170006Ev, symObjAddr: 0xE140, symBinAddr: 0x10000F03C, symSize: 0x14 }
  - { offsetInCU: 0x28139, offset: 0x28139, size: 0x8, addend: 0x0, symName: __ZNSt3__16vectorIfNS_9allocatorIfEEED2B8ue170006Ev, symObjAddr: 0xE154, symBinAddr: 0x10000F050, symSize: 0x44 }
  - { offsetInCU: 0x28163, offset: 0x28163, size: 0x8, addend: 0x0, symName: __ZNSt3__16vectorIfNS_9allocatorIfEEE16__destroy_vectorC1B8ue170006ERS3_, symObjAddr: 0xE198, symBinAddr: 0x10000F094, symSize: 0x34 }
  - { offsetInCU: 0x2819C, offset: 0x2819C, size: 0x8, addend: 0x0, symName: __ZNSt3__16vectorIfNS_9allocatorIfEEE16__destroy_vectorclB8ue170006Ev, symObjAddr: 0xE1CC, symBinAddr: 0x10000F0C8, symSize: 0x90 }
  - { offsetInCU: 0x281C2, offset: 0x281C2, size: 0x8, addend: 0x0, symName: __ZNSt3__16vectorIfNS_9allocatorIfEEE16__destroy_vectorC2B8ue170006ERS3_, symObjAddr: 0xE25C, symBinAddr: 0x10000F158, symSize: 0x20 }
  - { offsetInCU: 0x281FB, offset: 0x281FB, size: 0x8, addend: 0x0, symName: __ZNSt3__16vectorIfNS_9allocatorIfEEE7__clearB8ue170006Ev, symObjAddr: 0xE27C, symBinAddr: 0x10000F178, symSize: 0x28 }
  - { offsetInCU: 0x28221, offset: 0x28221, size: 0x8, addend: 0x0, symName: __ZNKSt3__16vectorIfNS_9allocatorIfEEE17__annotate_deleteB8ue170006Ev, symObjAddr: 0xE2A4, symBinAddr: 0x10000F1A0, symSize: 0xB8 }
  - { offsetInCU: 0x28247, offset: 0x28247, size: 0x8, addend: 0x0, symName: __ZNSt3__116allocator_traitsINS_9allocatorIfEEE10deallocateB8ue170006ERS2_Pfm, symObjAddr: 0xE35C, symBinAddr: 0x10000F258, symSize: 0x34 }
  - { offsetInCU: 0x28289, offset: 0x28289, size: 0x8, addend: 0x0, symName: __ZNSt3__16vectorIfNS_9allocatorIfEEE7__allocB8ue170006Ev, symObjAddr: 0xE390, symBinAddr: 0x10000F28C, symSize: 0x28 }
  - { offsetInCU: 0x282AF, offset: 0x282AF, size: 0x8, addend: 0x0, symName: __ZNKSt3__16vectorIfNS_9allocatorIfEEE8capacityB8ue170006Ev, symObjAddr: 0xE3B8, symBinAddr: 0x10000F2B4, symSize: 0x40 }
  - { offsetInCU: 0x282D5, offset: 0x282D5, size: 0x8, addend: 0x0, symName: __ZNSt3__16vectorIfNS_9allocatorIfEEE22__base_destruct_at_endB8ue170006EPf, symObjAddr: 0xE3F8, symBinAddr: 0x10000F2F4, symSize: 0x8C }
  - { offsetInCU: 0x28319, offset: 0x28319, size: 0x8, addend: 0x0, symName: __ZNSt3__116allocator_traitsINS_9allocatorIfEEE7destroyB8ue170006IfvEEvRS2_PT_, symObjAddr: 0xE484, symBinAddr: 0x10000F380, symSize: 0x2C }
  - { offsetInCU: 0x28356, offset: 0x28356, size: 0x8, addend: 0x0, symName: __ZNSt3__19allocatorIfE7destroyB8ue170006EPf, symObjAddr: 0xE4C4, symBinAddr: 0x10000F3C0, symSize: 0x14 }
  - { offsetInCU: 0x2838A, offset: 0x2838A, size: 0x8, addend: 0x0, symName: __ZNKSt3__16vectorIfNS_9allocatorIfEEE31__annotate_contiguous_containerB8ue170006EPKvS5_S5_S5_, symObjAddr: 0xE4D8, symBinAddr: 0x10000F3D4, symSize: 0x20 }
  - { offsetInCU: 0x283DC, offset: 0x283DC, size: 0x8, addend: 0x0, symName: __ZNKSt3__16vectorIfNS_9allocatorIfEEE4dataB8ue170006Ev, symObjAddr: 0xE4F8, symBinAddr: 0x10000F3F4, symSize: 0x28 }
  - { offsetInCU: 0x28402, offset: 0x28402, size: 0x8, addend: 0x0, symName: __ZNSt3__19allocatorIfE10deallocateB8ue170006EPfm, symObjAddr: 0xE520, symBinAddr: 0x10000F41C, symSize: 0x40 }
  - { offsetInCU: 0x28444, offset: 0x28444, size: 0x8, addend: 0x0, symName: __ZNSt3__117__compressed_pairIPfNS_9allocatorIfEEE6secondB8ue170006Ev, symObjAddr: 0xE560, symBinAddr: 0x10000F45C, symSize: 0x24 }
  - { offsetInCU: 0x2846A, offset: 0x2846A, size: 0x8, addend: 0x0, symName: __ZNSt3__122__compressed_pair_elemINS_9allocatorIfEELi1ELb1EE5__getB8ue170006Ev, symObjAddr: 0xE584, symBinAddr: 0x10000F480, symSize: 0x14 }
  - { offsetInCU: 0x28490, offset: 0x28490, size: 0x8, addend: 0x0, symName: __ZNKSt3__16vectorIfNS_9allocatorIfEEE9__end_capB8ue170006Ev, symObjAddr: 0xE598, symBinAddr: 0x10000F494, symSize: 0x28 }
  - { offsetInCU: 0x284B6, offset: 0x284B6, size: 0x8, addend: 0x0, symName: __ZNKSt3__117__compressed_pairIPfNS_9allocatorIfEEE5firstB8ue170006Ev, symObjAddr: 0xE5C0, symBinAddr: 0x10000F4BC, symSize: 0x24 }
  - { offsetInCU: 0x284DC, offset: 0x284DC, size: 0x8, addend: 0x0, symName: __ZNKSt3__122__compressed_pair_elemIPfLi0ELb0EE5__getB8ue170006Ev, symObjAddr: 0xE5E4, symBinAddr: 0x10000F4E0, symSize: 0x14 }
  - { offsetInCU: 0x28502, offset: 0x28502, size: 0x8, addend: 0x0, symName: __ZNSt3__16vectorIfNS_9allocatorIfEEE9__end_capB8ue170006Ev, symObjAddr: 0xE5F8, symBinAddr: 0x10000F4F4, symSize: 0x28 }
  - { offsetInCU: 0x28528, offset: 0x28528, size: 0x8, addend: 0x0, symName: __ZNSt3__16vectorIfNS_9allocatorIfEEE22__construct_one_at_endB8ue170006IJRKfEEEvDpOT_, symObjAddr: 0xE620, symBinAddr: 0x10000F51C, symSize: 0x90 }
  - { offsetInCU: 0x28577, offset: 0x28577, size: 0x8, addend: 0x0, symName: __ZNSt3__16vectorIfNS_9allocatorIfEEE21__push_back_slow_pathIRKfEEvOT_, symObjAddr: 0xE6B0, symBinAddr: 0x10000F5AC, symSize: 0xD8 }
  - { offsetInCU: 0x285D5, offset: 0x285D5, size: 0x8, addend: 0x0, symName: __ZNSt3__117__compressed_pairIPfNS_9allocatorIfEEE5firstB8ue170006Ev, symObjAddr: 0xE788, symBinAddr: 0x10000F684, symSize: 0x24 }
  - { offsetInCU: 0x285FB, offset: 0x285FB, size: 0x8, addend: 0x0, symName: __ZNSt3__122__compressed_pair_elemIPfLi0ELb0EE5__getB8ue170006Ev, symObjAddr: 0xE7AC, symBinAddr: 0x10000F6A8, symSize: 0x14 }
  - { offsetInCU: 0x2863A, offset: 0x2863A, size: 0x8, addend: 0x0, symName: __ZNSt3__16vectorIfNS_9allocatorIfEEE21_ConstructTransactionC1B8ue170006ERS3_m, symObjAddr: 0xE7C0, symBinAddr: 0x10000F6BC, symSize: 0x3C }
  - { offsetInCU: 0x28682, offset: 0x28682, size: 0x8, addend: 0x0, symName: __ZNSt3__116allocator_traitsINS_9allocatorIfEEE9constructB8ue170006IfJRKfEvEEvRS2_PT_DpOT0_, symObjAddr: 0xE7FC, symBinAddr: 0x10000F6F8, symSize: 0x34 }
  - { offsetInCU: 0x286D9, offset: 0x286D9, size: 0x8, addend: 0x0, symName: __ZNSt3__16vectorIfNS_9allocatorIfEEE21_ConstructTransactionD1B8ue170006Ev, symObjAddr: 0xE830, symBinAddr: 0x10000F72C, symSize: 0x2C }
  - { offsetInCU: 0x28703, offset: 0x28703, size: 0x8, addend: 0x0, symName: __ZNSt3__16vectorIfNS_9allocatorIfEEE21_ConstructTransactionC2B8ue170006ERS3_m, symObjAddr: 0xE85C, symBinAddr: 0x10000F758, symSize: 0x44 }
  - { offsetInCU: 0x2874B, offset: 0x2874B, size: 0x8, addend: 0x0, symName: __ZNSt3__19allocatorIfE9constructB8ue170006IfJRKfEEEvPT_DpOT0_, symObjAddr: 0xE8A0, symBinAddr: 0x10000F79C, symSize: 0x28 }
  - { offsetInCU: 0x287A1, offset: 0x287A1, size: 0x8, addend: 0x0, symName: __ZNSt3__16vectorIfNS_9allocatorIfEEE21_ConstructTransactionD2B8ue170006Ev, symObjAddr: 0xE8C8, symBinAddr: 0x10000F7C4, symSize: 0x20 }
  - { offsetInCU: 0x287CB, offset: 0x287CB, size: 0x8, addend: 0x0, symName: __ZNKSt3__16vectorIfNS_9allocatorIfEEE11__recommendB8ue170006Em, symObjAddr: 0xE8E8, symBinAddr: 0x10000F7E4, symSize: 0xB4 }
  - { offsetInCU: 0x28820, offset: 0x28820, size: 0x8, addend: 0x0, symName: __ZNSt3__114__split_bufferIfRNS_9allocatorIfEEEC1EmmS3_, symObjAddr: 0xE99C, symBinAddr: 0x10000F898, symSize: 0x44 }
  - { offsetInCU: 0x28876, offset: 0x28876, size: 0x8, addend: 0x0, symName: __ZNSt3__114__split_bufferIfRNS_9allocatorIfEEED1Ev, symObjAddr: 0xEAF0, symBinAddr: 0x10000F9EC, symSize: 0x2C }
  - { offsetInCU: 0x288A2, offset: 0x288A2, size: 0x8, addend: 0x0, symName: __ZNKSt3__16vectorIfNS_9allocatorIfEEE8max_sizeEv, symObjAddr: 0xEB1C, symBinAddr: 0x10000FA18, symSize: 0x60 }
  - { offsetInCU: 0x288CA, offset: 0x288CA, size: 0x8, addend: 0x0, symName: __ZNKSt3__16vectorIfNS_9allocatorIfEEE20__throw_length_errorB8ue170006Ev, symObjAddr: 0xEB7C, symBinAddr: 0x10000FA78, symSize: 0x1C }
  - { offsetInCU: 0x288FA, offset: 0x288FA, size: 0x8, addend: 0x0, symName: __ZNSt3__116allocator_traitsINS_9allocatorIfEEE8max_sizeB8ue170006IS2_vEEmRKS2_, symObjAddr: 0xEB98, symBinAddr: 0x10000FA94, symSize: 0x24 }
  - { offsetInCU: 0x28928, offset: 0x28928, size: 0x8, addend: 0x0, symName: __ZNKSt3__16vectorIfNS_9allocatorIfEEE7__allocB8ue170006Ev, symObjAddr: 0xEBBC, symBinAddr: 0x10000FAB8, symSize: 0x28 }
  - { offsetInCU: 0x2894E, offset: 0x2894E, size: 0x8, addend: 0x0, symName: __ZNKSt3__19allocatorIfE8max_sizeB8ue170006Ev, symObjAddr: 0xEBE4, symBinAddr: 0x10000FAE0, symSize: 0x14 }
  - { offsetInCU: 0x28974, offset: 0x28974, size: 0x8, addend: 0x0, symName: __ZNKSt3__117__compressed_pairIPfNS_9allocatorIfEEE6secondB8ue170006Ev, symObjAddr: 0xEBF8, symBinAddr: 0x10000FAF4, symSize: 0x24 }
  - { offsetInCU: 0x2899A, offset: 0x2899A, size: 0x8, addend: 0x0, symName: __ZNKSt3__122__compressed_pair_elemINS_9allocatorIfEELi1ELb1EE5__getB8ue170006Ev, symObjAddr: 0xEC1C, symBinAddr: 0x10000FB18, symSize: 0x14 }
  - { offsetInCU: 0x289C0, offset: 0x289C0, size: 0x8, addend: 0x0, symName: __ZNSt3__114__split_bufferIfRNS_9allocatorIfEEEC2EmmS3_, symObjAddr: 0xEC30, symBinAddr: 0x10000FB2C, symSize: 0xD4 }
  - { offsetInCU: 0x28A33, offset: 0x28A33, size: 0x8, addend: 0x0, symName: __ZNSt3__117__compressed_pairIPfRNS_9allocatorIfEEEC1B8ue170006IDnS4_EEOT_OT0_, symObjAddr: 0xED04, symBinAddr: 0x10000FC00, symSize: 0x3C }
  - { offsetInCU: 0x28A8B, offset: 0x28A8B, size: 0x8, addend: 0x0, symName: __ZNSt3__114__split_bufferIfRNS_9allocatorIfEEE7__allocB8ue170006Ev, symObjAddr: 0xED80, symBinAddr: 0x10000FC7C, symSize: 0x28 }
  - { offsetInCU: 0x28AB1, offset: 0x28AB1, size: 0x8, addend: 0x0, symName: __ZNSt3__114__split_bufferIfRNS_9allocatorIfEEE9__end_capB8ue170006Ev, symObjAddr: 0xEDA8, symBinAddr: 0x10000FCA4, symSize: 0x28 }
  - { offsetInCU: 0x28AD7, offset: 0x28AD7, size: 0x8, addend: 0x0, symName: __ZNSt3__117__compressed_pairIPfRNS_9allocatorIfEEEC2B8ue170006IDnS4_EEOT_OT0_, symObjAddr: 0xEDD0, symBinAddr: 0x10000FCCC, symSize: 0x48 }
  - { offsetInCU: 0x28B2F, offset: 0x28B2F, size: 0x8, addend: 0x0, symName: __ZNSt3__122__compressed_pair_elemIRNS_9allocatorIfEELi1ELb0EEC2B8ue170006IS3_vEEOT_, symObjAddr: 0xEE18, symBinAddr: 0x10000FD14, symSize: 0x20 }
  - { offsetInCU: 0x28B71, offset: 0x28B71, size: 0x8, addend: 0x0, symName: __ZNSt3__19allocatorIfE8allocateB8ue170006Em, symObjAddr: 0xEE38, symBinAddr: 0x10000FD34, symSize: 0x58 }
  - { offsetInCU: 0x28BA5, offset: 0x28BA5, size: 0x8, addend: 0x0, symName: __ZNSt3__117__compressed_pairIPfRNS_9allocatorIfEEE6secondB8ue170006Ev, symObjAddr: 0xEE90, symBinAddr: 0x10000FD8C, symSize: 0x28 }
  - { offsetInCU: 0x28BCB, offset: 0x28BCB, size: 0x8, addend: 0x0, symName: __ZNSt3__122__compressed_pair_elemIRNS_9allocatorIfEELi1ELb0EE5__getB8ue170006Ev, symObjAddr: 0xEEB8, symBinAddr: 0x10000FDB4, symSize: 0x18 }
  - { offsetInCU: 0x28BF1, offset: 0x28BF1, size: 0x8, addend: 0x0, symName: __ZNSt3__117__compressed_pairIPfRNS_9allocatorIfEEE5firstB8ue170006Ev, symObjAddr: 0xEED0, symBinAddr: 0x10000FDCC, symSize: 0x24 }
  - { offsetInCU: 0x28C17, offset: 0x28C17, size: 0x8, addend: 0x0, symName: __ZNSt3__116reverse_iteratorIPfEC1B8ue170006ES1_, symObjAddr: 0xEF6C, symBinAddr: 0x10000FE68, symSize: 0x34 }
  - { offsetInCU: 0x28C4F, offset: 0x28C4F, size: 0x8, addend: 0x0, symName: __ZNKSt3__116reverse_iteratorIPfE4baseB8ue170006Ev, symObjAddr: 0xEFA0, symBinAddr: 0x10000FE9C, symSize: 0x18 }
  - { offsetInCU: 0x28C75, offset: 0x28C75, size: 0x8, addend: 0x0, symName: __ZNKSt3__16vectorIfNS_9allocatorIfEEE14__annotate_newB8ue170006Em, symObjAddr: 0xEFF4, symBinAddr: 0x10000FEF0, symSize: 0xAC }
  - { offsetInCU: 0x28CC4, offset: 0x28CC4, size: 0x8, addend: 0x0, symName: __ZNKSt3__111__move_loopINS_17_ClassicAlgPolicyEEclB8ue170006INS_16reverse_iteratorIPfEES6_S6_EENS_4pairIT_T1_EES8_T0_S9_, symObjAddr: 0xF390, symBinAddr: 0x10001028C, symSize: 0xA0 }
  - { offsetInCU: 0x28D35, offset: 0x28D35, size: 0x8, addend: 0x0, symName: __ZNSt3__18_IterOpsINS_17_ClassicAlgPolicyEE11__iter_moveB8ue170006IRNS_16reverse_iteratorIPfEEEENS_9enable_ifIXsr12is_referenceIDTdeclsr3stdE7declvalIRT_EEEEE5valueEDTclsr3stdE4movedeclsr3stdE7declvalISA_EEEEE4typeEOS9_, symObjAddr: 0xF5C4, symBinAddr: 0x1000104C0, symSize: 0x28 }
  - { offsetInCU: 0x28D61, offset: 0x28D61, size: 0x8, addend: 0x0, symName: __ZNKSt3__116reverse_iteratorIPfEdeB8ue170006Ev, symObjAddr: 0xF5EC, symBinAddr: 0x1000104E8, symSize: 0x28 }
  - { offsetInCU: 0x28D95, offset: 0x28D95, size: 0x8, addend: 0x0, symName: __ZNSt3__116reverse_iteratorIPfEppB8ue170006Ev, symObjAddr: 0xF614, symBinAddr: 0x100010510, symSize: 0x20 }
  - { offsetInCU: 0x28DBB, offset: 0x28DBB, size: 0x8, addend: 0x0, symName: __ZNSt3__18_IterOpsINS_17_ClassicAlgPolicyEE25__validate_iter_referenceB8ue170006IRNS_16reverse_iteratorIPfEEEEvv, symObjAddr: 0xF634, symBinAddr: 0x100010530, symSize: 0x4 }
  - { offsetInCU: 0x28DD9, offset: 0x28DD9, size: 0x8, addend: 0x0, symName: __ZNSt3__118__unwrap_iter_implINS_16reverse_iteratorIPfEELb0EE8__unwrapB8ue170006ES3_, symObjAddr: 0xF638, symBinAddr: 0x100010534, symSize: 0x24 }
  - { offsetInCU: 0x28E02, offset: 0x28E02, size: 0x8, addend: 0x0, symName: __ZNSt3__14pairINS_16reverse_iteratorIPfEES3_EC1B8ue170006IS3_S3_LPv0EEEOT_OT0_, symObjAddr: 0xF65C, symBinAddr: 0x100010558, symSize: 0x3C }
  - { offsetInCU: 0x28E60, offset: 0x28E60, size: 0x8, addend: 0x0, symName: __ZNSt3__14pairINS_16reverse_iteratorIPfEES3_EC2B8ue170006IS3_S3_LPv0EEEOT_OT0_, symObjAddr: 0xF698, symBinAddr: 0x100010594, symSize: 0x34 }
  - { offsetInCU: 0x28EBE, offset: 0x28EBE, size: 0x8, addend: 0x0, symName: __ZNSt3__118__unwrap_iter_implINS_16reverse_iteratorIPfEELb0EE8__rewrapB8ue170006ES3_S3_, symObjAddr: 0xF6CC, symBinAddr: 0x1000105C8, symSize: 0x2C }
  - { offsetInCU: 0x28EEB, offset: 0x28EEB, size: 0x8, addend: 0x0, symName: __ZNSt3__116reverse_iteratorIPfEC2B8ue170006ES1_, symObjAddr: 0xF6F8, symBinAddr: 0x1000105F4, symSize: 0x28 }
  - { offsetInCU: 0x28F23, offset: 0x28F23, size: 0x8, addend: 0x0, symName: __ZNSt3__114__split_bufferIfRNS_9allocatorIfEEED2Ev, symObjAddr: 0xF720, symBinAddr: 0x10001061C, symSize: 0x8C }
  - { offsetInCU: 0x28F4F, offset: 0x28F4F, size: 0x8, addend: 0x0, symName: __ZNSt3__114__split_bufferIfRNS_9allocatorIfEEE5clearB8ue170006Ev, symObjAddr: 0xF7AC, symBinAddr: 0x1000106A8, symSize: 0x28 }
  - { offsetInCU: 0x28F75, offset: 0x28F75, size: 0x8, addend: 0x0, symName: __ZNKSt3__114__split_bufferIfRNS_9allocatorIfEEE8capacityB8ue170006Ev, symObjAddr: 0xF7D4, symBinAddr: 0x1000106D0, symSize: 0x40 }
  - { offsetInCU: 0x28F9B, offset: 0x28F9B, size: 0x8, addend: 0x0, symName: __ZNSt3__114__split_bufferIfRNS_9allocatorIfEEE17__destruct_at_endB8ue170006EPf, symObjAddr: 0xF814, symBinAddr: 0x100010710, symSize: 0x2C }
  - { offsetInCU: 0x28FCF, offset: 0x28FCF, size: 0x8, addend: 0x0, symName: __ZNSt3__114__split_bufferIfRNS_9allocatorIfEEE17__destruct_at_endB8ue170006EPfNS_17integral_constantIbLb0EEE, symObjAddr: 0xF840, symBinAddr: 0x10001073C, symSize: 0x80 }
  - { offsetInCU: 0x2900F, offset: 0x2900F, size: 0x8, addend: 0x0, symName: __ZNKSt3__114__split_bufferIfRNS_9allocatorIfEEE9__end_capB8ue170006Ev, symObjAddr: 0xF8C0, symBinAddr: 0x1000107BC, symSize: 0x28 }
  - { offsetInCU: 0x29035, offset: 0x29035, size: 0x8, addend: 0x0, symName: __ZNKSt3__117__compressed_pairIPfRNS_9allocatorIfEEE5firstB8ue170006Ev, symObjAddr: 0xF8E8, symBinAddr: 0x1000107E4, symSize: 0x24 }
  - { offsetInCU: 0x2905B, offset: 0x2905B, size: 0x8, addend: 0x0, symName: __ZNSt3__16vectorIN3glm5tvec3IfLNS1_9precisionE0EEENS_9allocatorIS4_EEEC2B8ue170006ESt16initializer_listIS4_E, symObjAddr: 0xF90C, symBinAddr: 0x100010808, symSize: 0x120 }
  - { offsetInCU: 0x290AB, offset: 0x290AB, size: 0x8, addend: 0x0, symName: __ZNSt3__117__compressed_pairIPN3glm5tvec3IfLNS1_9precisionE0EEENS_9allocatorIS4_EEEC1B8ue170006IDnNS_18__default_init_tagEEEOT_OT0_, symObjAddr: 0xFA2C, symBinAddr: 0x100010928, symSize: 0x3C }
  - { offsetInCU: 0x29103, offset: 0x29103, size: 0x8, addend: 0x0, symName: __ZNSt3__16vectorIN3glm5tvec3IfLNS1_9precisionE0EEENS_9allocatorIS4_EEE16__destroy_vectorC1B8ue170006ERS7_, symObjAddr: 0xFAA8, symBinAddr: 0x1000109A4, symSize: 0x34 }
  - { offsetInCU: 0x2913C, offset: 0x2913C, size: 0x8, addend: 0x0, symName: __ZNKSt16initializer_listIN3glm5tvec3IfLNS0_9precisionE0EEEE4sizeB8ue170006Ev, symObjAddr: 0xFADC, symBinAddr: 0x1000109D8, symSize: 0x18 }
  - { offsetInCU: 0x29162, offset: 0x29162, size: 0x8, addend: 0x0, symName: __ZNSt3__16vectorIN3glm5tvec3IfLNS1_9precisionE0EEENS_9allocatorIS4_EEE11__vallocateB8ue170006Em, symObjAddr: 0xFAF4, symBinAddr: 0x1000109F0, symSize: 0xB4 }
  - { offsetInCU: 0x291A6, offset: 0x291A6, size: 0x8, addend: 0x0, symName: __ZNSt3__16vectorIN3glm5tvec3IfLNS1_9precisionE0EEENS_9allocatorIS4_EEE18__construct_at_endIPKS4_SA_EEvT_T0_m, symObjAddr: 0xFBA8, symBinAddr: 0x100010AA4, symSize: 0x8C }
  - { offsetInCU: 0x2921C, offset: 0x2921C, size: 0x8, addend: 0x0, symName: __ZNKSt16initializer_listIN3glm5tvec3IfLNS0_9precisionE0EEEE5beginB8ue170006Ev, symObjAddr: 0xFC34, symBinAddr: 0x100010B30, symSize: 0x18 }
  - { offsetInCU: 0x29242, offset: 0x29242, size: 0x8, addend: 0x0, symName: __ZNKSt16initializer_listIN3glm5tvec3IfLNS0_9precisionE0EEEE3endB8ue170006Ev, symObjAddr: 0xFC4C, symBinAddr: 0x100010B48, symSize: 0x28 }
  - { offsetInCU: 0x29268, offset: 0x29268, size: 0x8, addend: 0x0, symName: __ZNSt3__128__exception_guard_exceptionsINS_6vectorIN3glm5tvec3IfLNS2_9precisionE0EEENS_9allocatorIS5_EEE16__destroy_vectorEE10__completeB8ue170006Ev, symObjAddr: 0xFC74, symBinAddr: 0x100010B70, symSize: 0x1C }
  - { offsetInCU: 0x2928E, offset: 0x2928E, size: 0x8, addend: 0x0, symName: __ZNSt3__128__exception_guard_exceptionsINS_6vectorIN3glm5tvec3IfLNS2_9precisionE0EEENS_9allocatorIS5_EEE16__destroy_vectorEED1B8ue170006Ev, symObjAddr: 0xFC90, symBinAddr: 0x100010B8C, symSize: 0x2C }
  - { offsetInCU: 0x292B8, offset: 0x292B8, size: 0x8, addend: 0x0, symName: __ZNSt3__117__compressed_pairIPN3glm5tvec3IfLNS1_9precisionE0EEENS_9allocatorIS4_EEEC2B8ue170006IDnNS_18__default_init_tagEEEOT_OT0_, symObjAddr: 0xFCBC, symBinAddr: 0x100010BB8, symSize: 0x40 }
  - { offsetInCU: 0x29310, offset: 0x29310, size: 0x8, addend: 0x0, symName: __ZNSt3__122__compressed_pair_elemIPN3glm5tvec3IfLNS1_9precisionE0EEELi0ELb0EEC2B8ue170006IDnvEEOT_, symObjAddr: 0xFCFC, symBinAddr: 0x100010BF8, symSize: 0x1C }
  - { offsetInCU: 0x29352, offset: 0x29352, size: 0x8, addend: 0x0, symName: __ZNSt3__122__compressed_pair_elemINS_9allocatorIN3glm5tvec3IfLNS2_9precisionE0EEEEELi1ELb1EEC2B8ue170006ENS_18__default_init_tagE, symObjAddr: 0xFD18, symBinAddr: 0x100010C14, symSize: 0x2C }
  - { offsetInCU: 0x29386, offset: 0x29386, size: 0x8, addend: 0x0, symName: __ZNSt3__19allocatorIN3glm5tvec3IfLNS1_9precisionE0EEEEC2B8ue170006Ev, symObjAddr: 0xFD44, symBinAddr: 0x100010C40, symSize: 0x2C }
  - { offsetInCU: 0x293B0, offset: 0x293B0, size: 0x8, addend: 0x0, symName: __ZNSt3__116__non_trivial_ifILb1ENS_9allocatorIN3glm5tvec3IfLNS2_9precisionE0EEEEEEC2B8ue170006Ev, symObjAddr: 0xFD70, symBinAddr: 0x100010C6C, symSize: 0x14 }
  - { offsetInCU: 0x293DA, offset: 0x293DA, size: 0x8, addend: 0x0, symName: __ZNSt3__128__exception_guard_exceptionsINS_6vectorIN3glm5tvec3IfLNS2_9precisionE0EEENS_9allocatorIS5_EEE16__destroy_vectorEEC1B8ue170006ES9_, symObjAddr: 0xFD84, symBinAddr: 0x100010C80, symSize: 0x34 }
  - { offsetInCU: 0x29412, offset: 0x29412, size: 0x8, addend: 0x0, symName: __ZNSt3__128__exception_guard_exceptionsINS_6vectorIN3glm5tvec3IfLNS2_9precisionE0EEENS_9allocatorIS5_EEE16__destroy_vectorEEC2B8ue170006ES9_, symObjAddr: 0xFDB8, symBinAddr: 0x100010CB4, symSize: 0x24 }
  - { offsetInCU: 0x2944A, offset: 0x2944A, size: 0x8, addend: 0x0, symName: __ZNSt3__16vectorIN3glm5tvec3IfLNS1_9precisionE0EEENS_9allocatorIS4_EEE16__destroy_vectorC2B8ue170006ERS7_, symObjAddr: 0xFDDC, symBinAddr: 0x100010CD8, symSize: 0x20 }
  - { offsetInCU: 0x29483, offset: 0x29483, size: 0x8, addend: 0x0, symName: __ZNKSt3__16vectorIN3glm5tvec3IfLNS1_9precisionE0EEENS_9allocatorIS4_EEE8max_sizeEv, symObjAddr: 0xFDFC, symBinAddr: 0x100010CF8, symSize: 0x60 }
  - { offsetInCU: 0x294AB, offset: 0x294AB, size: 0x8, addend: 0x0, symName: __ZNKSt3__16vectorIN3glm5tvec3IfLNS1_9precisionE0EEENS_9allocatorIS4_EEE20__throw_length_errorB8ue170006Ev, symObjAddr: 0xFE5C, symBinAddr: 0x100010D58, symSize: 0x1C }
  - { offsetInCU: 0x294D1, offset: 0x294D1, size: 0x8, addend: 0x0, symName: __ZNSt3__16vectorIN3glm5tvec3IfLNS1_9precisionE0EEENS_9allocatorIS4_EEE7__allocB8ue170006Ev, symObjAddr: 0xFEB8, symBinAddr: 0x100010DB4, symSize: 0x28 }
  - { offsetInCU: 0x294F7, offset: 0x294F7, size: 0x8, addend: 0x0, symName: __ZNSt3__16vectorIN3glm5tvec3IfLNS1_9precisionE0EEENS_9allocatorIS4_EEE9__end_capB8ue170006Ev, symObjAddr: 0xFEE0, symBinAddr: 0x100010DDC, symSize: 0x28 }
  - { offsetInCU: 0x2951D, offset: 0x2951D, size: 0x8, addend: 0x0, symName: __ZNKSt3__16vectorIN3glm5tvec3IfLNS1_9precisionE0EEENS_9allocatorIS4_EEE14__annotate_newB8ue170006Em, symObjAddr: 0xFF08, symBinAddr: 0x100010E04, symSize: 0xC8 }
  - { offsetInCU: 0x2955C, offset: 0x2955C, size: 0x8, addend: 0x0, symName: __ZNSt3__116allocator_traitsINS_9allocatorIN3glm5tvec3IfLNS2_9precisionE0EEEEEE8max_sizeB8ue170006IS6_vEEmRKS6_, symObjAddr: 0xFFD0, symBinAddr: 0x100010ECC, symSize: 0x24 }
  - { offsetInCU: 0x2958A, offset: 0x2958A, size: 0x8, addend: 0x0, symName: __ZNKSt3__16vectorIN3glm5tvec3IfLNS1_9precisionE0EEENS_9allocatorIS4_EEE7__allocB8ue170006Ev, symObjAddr: 0xFFF4, symBinAddr: 0x100010EF0, symSize: 0x28 }
  - { offsetInCU: 0x295B0, offset: 0x295B0, size: 0x8, addend: 0x0, symName: __ZNKSt3__19allocatorIN3glm5tvec3IfLNS1_9precisionE0EEEE8max_sizeB8ue170006Ev, symObjAddr: 0x1001C, symBinAddr: 0x100010F18, symSize: 0x18 }
  - { offsetInCU: 0x295D6, offset: 0x295D6, size: 0x8, addend: 0x0, symName: __ZNKSt3__117__compressed_pairIPN3glm5tvec3IfLNS1_9precisionE0EEENS_9allocatorIS4_EEE6secondB8ue170006Ev, symObjAddr: 0x10034, symBinAddr: 0x100010F30, symSize: 0x24 }
  - { offsetInCU: 0x295FC, offset: 0x295FC, size: 0x8, addend: 0x0, symName: __ZNKSt3__122__compressed_pair_elemINS_9allocatorIN3glm5tvec3IfLNS2_9precisionE0EEEEELi1ELb1EE5__getB8ue170006Ev, symObjAddr: 0x10058, symBinAddr: 0x100010F54, symSize: 0x14 }
  - { offsetInCU: 0x29622, offset: 0x29622, size: 0x8, addend: 0x0, symName: __ZNSt3__19allocatorIN3glm5tvec3IfLNS1_9precisionE0EEEE8allocateB8ue170006Em, symObjAddr: 0x1006C, symBinAddr: 0x100010F68, symSize: 0x5C }
  - { offsetInCU: 0x29656, offset: 0x29656, size: 0x8, addend: 0x0, symName: __ZNSt3__117__compressed_pairIPN3glm5tvec3IfLNS1_9precisionE0EEENS_9allocatorIS4_EEE6secondB8ue170006Ev, symObjAddr: 0x100C8, symBinAddr: 0x100010FC4, symSize: 0x24 }
  - { offsetInCU: 0x2967C, offset: 0x2967C, size: 0x8, addend: 0x0, symName: __ZNSt3__122__compressed_pair_elemINS_9allocatorIN3glm5tvec3IfLNS2_9precisionE0EEEEELi1ELb1EE5__getB8ue170006Ev, symObjAddr: 0x100EC, symBinAddr: 0x100010FE8, symSize: 0x14 }
  - { offsetInCU: 0x296A2, offset: 0x296A2, size: 0x8, addend: 0x0, symName: __ZNSt3__117__compressed_pairIPN3glm5tvec3IfLNS1_9precisionE0EEENS_9allocatorIS4_EEE5firstB8ue170006Ev, symObjAddr: 0x10100, symBinAddr: 0x100010FFC, symSize: 0x24 }
  - { offsetInCU: 0x296C8, offset: 0x296C8, size: 0x8, addend: 0x0, symName: __ZNSt3__122__compressed_pair_elemIPN3glm5tvec3IfLNS1_9precisionE0EEELi0ELb0EE5__getB8ue170006Ev, symObjAddr: 0x10124, symBinAddr: 0x100011020, symSize: 0x14 }
  - { offsetInCU: 0x296EE, offset: 0x296EE, size: 0x8, addend: 0x0, symName: __ZNKSt3__16vectorIN3glm5tvec3IfLNS1_9precisionE0EEENS_9allocatorIS4_EEE31__annotate_contiguous_containerB8ue170006EPKvS9_S9_S9_, symObjAddr: 0x10138, symBinAddr: 0x100011034, symSize: 0x20 }
  - { offsetInCU: 0x29740, offset: 0x29740, size: 0x8, addend: 0x0, symName: __ZNKSt3__16vectorIN3glm5tvec3IfLNS1_9precisionE0EEENS_9allocatorIS4_EEE4dataB8ue170006Ev, symObjAddr: 0x10158, symBinAddr: 0x100011054, symSize: 0x28 }
  - { offsetInCU: 0x29766, offset: 0x29766, size: 0x8, addend: 0x0, symName: __ZNKSt3__16vectorIN3glm5tvec3IfLNS1_9precisionE0EEENS_9allocatorIS4_EEE8capacityB8ue170006Ev, symObjAddr: 0x10180, symBinAddr: 0x10001107C, symSize: 0x40 }
  - { offsetInCU: 0x2978C, offset: 0x2978C, size: 0x8, addend: 0x0, symName: __ZNKSt3__16vectorIN3glm5tvec3IfLNS1_9precisionE0EEENS_9allocatorIS4_EEE9__end_capB8ue170006Ev, symObjAddr: 0x101D4, symBinAddr: 0x1000110D0, symSize: 0x28 }
  - { offsetInCU: 0x297B2, offset: 0x297B2, size: 0x8, addend: 0x0, symName: __ZNKSt3__117__compressed_pairIPN3glm5tvec3IfLNS1_9precisionE0EEENS_9allocatorIS4_EEE5firstB8ue170006Ev, symObjAddr: 0x101FC, symBinAddr: 0x1000110F8, symSize: 0x24 }
  - { offsetInCU: 0x297D8, offset: 0x297D8, size: 0x8, addend: 0x0, symName: __ZNKSt3__122__compressed_pair_elemIPN3glm5tvec3IfLNS1_9precisionE0EEELi0ELb0EE5__getB8ue170006Ev, symObjAddr: 0x10220, symBinAddr: 0x10001111C, symSize: 0x14 }
  - { offsetInCU: 0x29817, offset: 0x29817, size: 0x8, addend: 0x0, symName: __ZNSt3__16vectorIN3glm5tvec3IfLNS1_9precisionE0EEENS_9allocatorIS4_EEE21_ConstructTransactionC1B8ue170006ERS7_m, symObjAddr: 0x10234, symBinAddr: 0x100011130, symSize: 0x3C }
  - { offsetInCU: 0x2985F, offset: 0x2985F, size: 0x8, addend: 0x0, symName: __ZNSt3__16vectorIN3glm5tvec3IfLNS1_9precisionE0EEENS_9allocatorIS4_EEE21_ConstructTransactionD1B8ue170006Ev, symObjAddr: 0x102F0, symBinAddr: 0x1000111EC, symSize: 0x2C }
  - { offsetInCU: 0x29889, offset: 0x29889, size: 0x8, addend: 0x0, symName: __ZNSt3__16vectorIN3glm5tvec3IfLNS1_9precisionE0EEENS_9allocatorIS4_EEE21_ConstructTransactionC2B8ue170006ERS7_m, symObjAddr: 0x1031C, symBinAddr: 0x100011218, symSize: 0x4C }
  - { offsetInCU: 0x298F1, offset: 0x298F1, size: 0x8, addend: 0x0, symName: __ZNSt3__14pairIPKN3glm5tvec3IfLNS1_9precisionE0EEES6_EC1B8ue170006IS6_S6_LPv0EEEOT_OT0_, symObjAddr: 0x10578, symBinAddr: 0x100011474, symSize: 0x3C }
  - { offsetInCU: 0x2994F, offset: 0x2994F, size: 0x8, addend: 0x0, symName: __ZNSt3__14pairIPKN3glm5tvec3IfLNS1_9precisionE0EEES6_EC2B8ue170006IS6_S6_LPv0EEEOT_OT0_, symObjAddr: 0x105B4, symBinAddr: 0x1000114B0, symSize: 0x34 }
  - { offsetInCU: 0x299AD, offset: 0x299AD, size: 0x8, addend: 0x0, symName: __ZNSt3__118__unwrap_iter_implIPKN3glm5tvec3IfLNS1_9precisionE0EEELb1EE8__unwrapB8ue170006ES6_, symObjAddr: 0x105E8, symBinAddr: 0x1000114E4, symSize: 0x24 }
  - { offsetInCU: 0x299D0, offset: 0x299D0, size: 0x8, addend: 0x0, symName: __ZNSt3__129_AllocatorDestroyRangeReverseINS_9allocatorIN3glm5tvec3IfLNS2_9precisionE0EEEEEPS5_EC1B8ue170006ERS6_RS7_SA_, symObjAddr: 0x1066C, symBinAddr: 0x100011568, symSize: 0x44 }
  - { offsetInCU: 0x29A27, offset: 0x29A27, size: 0x8, addend: 0x0, symName: __ZNSt3__116allocator_traitsINS_9allocatorIN3glm5tvec3IfLNS2_9precisionE0EEEEEE9constructB8ue170006IS5_JRKS5_EvEEvRS6_PT_DpOT0_, symObjAddr: 0x106B0, symBinAddr: 0x1000115AC, symSize: 0x34 }
  - { offsetInCU: 0x29A7E, offset: 0x29A7E, size: 0x8, addend: 0x0, symName: __ZNSt3__128__exception_guard_exceptionsINS_29_AllocatorDestroyRangeReverseINS_9allocatorIN3glm5tvec3IfLNS3_9precisionE0EEEEEPS6_EEE10__completeB8ue170006Ev, symObjAddr: 0x106E4, symBinAddr: 0x1000115E0, symSize: 0x1C }
  - { offsetInCU: 0x29AA4, offset: 0x29AA4, size: 0x8, addend: 0x0, symName: __ZNSt3__128__exception_guard_exceptionsINS_29_AllocatorDestroyRangeReverseINS_9allocatorIN3glm5tvec3IfLNS3_9precisionE0EEEEEPS6_EEED1B8ue170006Ev, symObjAddr: 0x10700, symBinAddr: 0x1000115FC, symSize: 0x2C }
  - { offsetInCU: 0x29ACE, offset: 0x29ACE, size: 0x8, addend: 0x0, symName: __ZNSt3__128__exception_guard_exceptionsINS_29_AllocatorDestroyRangeReverseINS_9allocatorIN3glm5tvec3IfLNS3_9precisionE0EEEEEPS6_EEEC1B8ue170006ES9_, symObjAddr: 0x1072C, symBinAddr: 0x100011628, symSize: 0x34 }
  - { offsetInCU: 0x29B07, offset: 0x29B07, size: 0x8, addend: 0x0, symName: __ZNSt3__128__exception_guard_exceptionsINS_29_AllocatorDestroyRangeReverseINS_9allocatorIN3glm5tvec3IfLNS3_9precisionE0EEEEEPS6_EEEC2B8ue170006ES9_, symObjAddr: 0x10760, symBinAddr: 0x10001165C, symSize: 0x30 }
  - { offsetInCU: 0x29B40, offset: 0x29B40, size: 0x8, addend: 0x0, symName: __ZNSt3__129_AllocatorDestroyRangeReverseINS_9allocatorIN3glm5tvec3IfLNS2_9precisionE0EEEEEPS5_EC2B8ue170006ERS6_RS7_SA_, symObjAddr: 0x10790, symBinAddr: 0x10001168C, symSize: 0x38 }
  - { offsetInCU: 0x29B97, offset: 0x29B97, size: 0x8, addend: 0x0, symName: __ZNSt3__19allocatorIN3glm5tvec3IfLNS1_9precisionE0EEEE9constructB8ue170006IS4_JRKS4_EEEvPT_DpOT0_, symObjAddr: 0x107C8, symBinAddr: 0x1000116C4, symSize: 0x30 }
  - { offsetInCU: 0x29BED, offset: 0x29BED, size: 0x8, addend: 0x0, symName: __ZN3glm5tvec3IfLNS_9precisionE0EEC1ERKS2_, symObjAddr: 0x107F8, symBinAddr: 0x1000116F4, symSize: 0x34 }
  - { offsetInCU: 0x29C27, offset: 0x29C27, size: 0x8, addend: 0x0, symName: __ZN3glm5tvec3IfLNS_9precisionE0EEC2ERKS2_, symObjAddr: 0x1082C, symBinAddr: 0x100011728, symSize: 0x3C }
  - { offsetInCU: 0x29C61, offset: 0x29C61, size: 0x8, addend: 0x0, symName: __ZNSt3__128__exception_guard_exceptionsINS_29_AllocatorDestroyRangeReverseINS_9allocatorIN3glm5tvec3IfLNS3_9precisionE0EEEEEPS6_EEED2B8ue170006Ev, symObjAddr: 0x10868, symBinAddr: 0x100011764, symSize: 0x50 }
  - { offsetInCU: 0x29C8B, offset: 0x29C8B, size: 0x8, addend: 0x0, symName: __ZNKSt3__129_AllocatorDestroyRangeReverseINS_9allocatorIN3glm5tvec3IfLNS2_9precisionE0EEEEEPS5_EclB8ue170006Ev, symObjAddr: 0x108B8, symBinAddr: 0x1000117B4, symSize: 0x68 }
  - { offsetInCU: 0x29CB1, offset: 0x29CB1, size: 0x8, addend: 0x0, symName: __ZNSt3__116reverse_iteratorIPN3glm5tvec3IfLNS1_9precisionE0EEEEC1B8ue170006ES5_, symObjAddr: 0x10990, symBinAddr: 0x10001188C, symSize: 0x34 }
  - { offsetInCU: 0x29CE9, offset: 0x29CE9, size: 0x8, addend: 0x0, symName: __ZNSt3__116allocator_traitsINS_9allocatorIN3glm5tvec3IfLNS2_9precisionE0EEEEEE7destroyB8ue170006IS5_vEEvRS6_PT_, symObjAddr: 0x10A0C, symBinAddr: 0x100011908, symSize: 0x2C }
  - { offsetInCU: 0x29D26, offset: 0x29D26, size: 0x8, addend: 0x0, symName: __ZNSt3__116reverse_iteratorIPN3glm5tvec3IfLNS1_9precisionE0EEEEppB8ue170006Ev, symObjAddr: 0x10A5C, symBinAddr: 0x100011958, symSize: 0x20 }
  - { offsetInCU: 0x29D4C, offset: 0x29D4C, size: 0x8, addend: 0x0, symName: __ZNKSt3__116reverse_iteratorIPN3glm5tvec3IfLNS1_9precisionE0EEEE4baseB8ue170006Ev, symObjAddr: 0x10A7C, symBinAddr: 0x100011978, symSize: 0x18 }
  - { offsetInCU: 0x29D72, offset: 0x29D72, size: 0x8, addend: 0x0, symName: __ZNSt3__19allocatorIN3glm5tvec3IfLNS1_9precisionE0EEEE7destroyB8ue170006EPS4_, symObjAddr: 0x10A94, symBinAddr: 0x100011990, symSize: 0x14 }
  - { offsetInCU: 0x29DAB, offset: 0x29DAB, size: 0x8, addend: 0x0, symName: __ZNSt3__119__to_address_helperINS_16reverse_iteratorIPN3glm5tvec3IfLNS2_9precisionE0EEEEEvE6__callB8ue170006ERKS7_, symObjAddr: 0x10AA8, symBinAddr: 0x1000119A4, symSize: 0x38 }
  - { offsetInCU: 0x29DCE, offset: 0x29DCE, size: 0x8, addend: 0x0, symName: __ZNKSt3__116reverse_iteratorIPN3glm5tvec3IfLNS1_9precisionE0EEEEptB8ue170006Ev, symObjAddr: 0x10AE0, symBinAddr: 0x1000119DC, symSize: 0x24 }
  - { offsetInCU: 0x29DF4, offset: 0x29DF4, size: 0x8, addend: 0x0, symName: __ZNKSt3__116reverse_iteratorIPN3glm5tvec3IfLNS1_9precisionE0EEEEdeB8ue170006Ev, symObjAddr: 0x10B04, symBinAddr: 0x100011A00, symSize: 0x28 }
  - { offsetInCU: 0x29E28, offset: 0x29E28, size: 0x8, addend: 0x0, symName: __ZNSt3__116reverse_iteratorIPN3glm5tvec3IfLNS1_9precisionE0EEEEC2B8ue170006ES5_, symObjAddr: 0x10B2C, symBinAddr: 0x100011A28, symSize: 0x28 }
  - { offsetInCU: 0x29E60, offset: 0x29E60, size: 0x8, addend: 0x0, symName: __ZNSt3__118__unwrap_iter_implIPN3glm5tvec3IfLNS1_9precisionE0EEELb1EE8__unwrapB8ue170006ES5_, symObjAddr: 0x10B54, symBinAddr: 0x100011A50, symSize: 0x24 }
  - { offsetInCU: 0x29E83, offset: 0x29E83, size: 0x8, addend: 0x0, symName: __ZNSt3__118__unwrap_iter_implIPN3glm5tvec3IfLNS1_9precisionE0EEELb1EE8__rewrapB8ue170006ES5_S5_, symObjAddr: 0x10B78, symBinAddr: 0x100011A74, symSize: 0x58 }
  - { offsetInCU: 0x29EB4, offset: 0x29EB4, size: 0x8, addend: 0x0, symName: __ZNSt3__16vectorIN3glm5tvec3IfLNS1_9precisionE0EEENS_9allocatorIS4_EEE21_ConstructTransactionD2B8ue170006Ev, symObjAddr: 0x10BD0, symBinAddr: 0x100011ACC, symSize: 0x20 }
  - { offsetInCU: 0x29EDE, offset: 0x29EDE, size: 0x8, addend: 0x0, symName: __ZNSt3__128__exception_guard_exceptionsINS_6vectorIN3glm5tvec3IfLNS2_9precisionE0EEENS_9allocatorIS5_EEE16__destroy_vectorEED2B8ue170006Ev, symObjAddr: 0x10BF0, symBinAddr: 0x100011AEC, symSize: 0x50 }
  - { offsetInCU: 0x29F08, offset: 0x29F08, size: 0x8, addend: 0x0, symName: __ZNSt3__16vectorIN3glm5tvec3IfLNS1_9precisionE0EEENS_9allocatorIS4_EEE16__destroy_vectorclB8ue170006Ev, symObjAddr: 0x10C40, symBinAddr: 0x100011B3C, symSize: 0x90 }
  - { offsetInCU: 0x29F2E, offset: 0x29F2E, size: 0x8, addend: 0x0, symName: __ZNSt3__16vectorIN3glm5tvec3IfLNS1_9precisionE0EEENS_9allocatorIS4_EEE7__clearB8ue170006Ev, symObjAddr: 0x10CD0, symBinAddr: 0x100011BCC, symSize: 0x28 }
  - { offsetInCU: 0x29F54, offset: 0x29F54, size: 0x8, addend: 0x0, symName: __ZNKSt3__16vectorIN3glm5tvec3IfLNS1_9precisionE0EEENS_9allocatorIS4_EEE17__annotate_deleteB8ue170006Ev, symObjAddr: 0x10CF8, symBinAddr: 0x100011BF4, symSize: 0xD4 }
  - { offsetInCU: 0x29F7A, offset: 0x29F7A, size: 0x8, addend: 0x0, symName: __ZNSt3__116allocator_traitsINS_9allocatorIN3glm5tvec3IfLNS2_9precisionE0EEEEEE10deallocateB8ue170006ERS6_PS5_m, symObjAddr: 0x10DCC, symBinAddr: 0x100011CC8, symSize: 0x34 }
  - { offsetInCU: 0x29FBC, offset: 0x29FBC, size: 0x8, addend: 0x0, symName: __ZNSt3__16vectorIN3glm5tvec3IfLNS1_9precisionE0EEENS_9allocatorIS4_EEE22__base_destruct_at_endB8ue170006EPS4_, symObjAddr: 0x10E00, symBinAddr: 0x100011CFC, symSize: 0x8C }
  - { offsetInCU: 0x2A000, offset: 0x2A000, size: 0x8, addend: 0x0, symName: __ZNSt3__19allocatorIN3glm5tvec3IfLNS1_9precisionE0EEEE10deallocateB8ue170006EPS4_m, symObjAddr: 0x10E8C, symBinAddr: 0x100011D88, symSize: 0x44 }
  - { offsetInCU: 0x2A042, offset: 0x2A042, size: 0x8, addend: 0x0, symName: __ZNSt3__16vectorIN3glm5tvec3IfLNS1_9precisionE0EEENS_9allocatorIS4_EEED2B8ue170006Ev, symObjAddr: 0x10ED0, symBinAddr: 0x100011DCC, symSize: 0x40 }
  - { offsetInCU: 0x2A06C, offset: 0x2A06C, size: 0x8, addend: 0x0, symName: __ZNKSt3__16vectorIfNS_9allocatorIfEEE17__annotate_shrinkB8ue170006Em, symObjAddr: 0x10F10, symBinAddr: 0x100011E0C, symSize: 0xB4 }
  - { offsetInCU: 0x2A0A1, offset: 0x2A0A1, size: 0x8, addend: 0x0, symName: __ZN3glm7tmat4x4IfLNS_9precisionE0EEixEi, symObjAddr: 0x11050, symBinAddr: 0x100011F4C, symSize: 0x78 }
  - { offsetInCU: 0x2A0D8, offset: 0x2A0D8, size: 0x8, addend: 0x0, symName: __ZN3glm5tvec4IfLNS_9precisionE0EEixEi, symObjAddr: 0x110C8, symBinAddr: 0x100011FC4, symSize: 0xA4 }
  - { offsetInCU: 0x2A10E, offset: 0x2A10E, size: 0x8, addend: 0x0, symName: __ZNK3glm7tmat4x4IfLNS_9precisionE0EE6lengthEv, symObjAddr: 0x1116C, symBinAddr: 0x100012068, symSize: 0x14 }
  - { offsetInCU: 0x2A137, offset: 0x2A137, size: 0x8, addend: 0x0, symName: __ZNK3glm5tvec4IfLNS_9precisionE0EE6lengthEv, symObjAddr: 0x111A4, symBinAddr: 0x1000120A0, symSize: 0x14 }
  - { offsetInCU: 0x2A15F, offset: 0x2A15F, size: 0x8, addend: 0x0, symName: __ZNSt3__114numeric_limitsIfE7epsilonB8ue170006Ev, symObjAddr: 0x111DC, symBinAddr: 0x1000120D8, symSize: 0x14 }
  - { offsetInCU: 0x2A172, offset: 0x2A172, size: 0x8, addend: 0x0, symName: __Z3tanB8ue170006f, symObjAddr: 0x111F0, symBinAddr: 0x1000120EC, symSize: 0x24 }
  - { offsetInCU: 0x2A1A1, offset: 0x2A1A1, size: 0x8, addend: 0x0, symName: __ZN3glm6detail11compute_absIfLb1EE4callEf, symObjAddr: 0x11214, symBinAddr: 0x100012110, symSize: 0x44 }
  - { offsetInCU: 0x2A1C4, offset: 0x2A1C4, size: 0x8, addend: 0x0, symName: __ZNSt3__123__libcpp_numeric_limitsIfLb1EE7epsilonB8ue170006Ev, symObjAddr: 0x11258, symBinAddr: 0x100012154, symSize: 0x8 }
  - { offsetInCU: 0x2A1D8, offset: 0x2A1D8, size: 0x8, addend: 0x0, symName: __ZN3glm7tmat4x4IfLNS_9precisionE0EEC2ERKf, symObjAddr: 0x11260, symBinAddr: 0x10001215C, symSize: 0x270 }
  - { offsetInCU: 0x2A212, offset: 0x2A212, size: 0x8, addend: 0x0, symName: __ZN3glm5tvec4IfLNS_9precisionE0EEC1Ev, symObjAddr: 0x114D0, symBinAddr: 0x1000123CC, symSize: 0x2C }
  - { offsetInCU: 0x2A23E, offset: 0x2A23E, size: 0x8, addend: 0x0, symName: __ZN3glm5tvec4IfLNS_9precisionE0EEC1IfiiiEET_T0_T1_T2_, symObjAddr: 0x114FC, symBinAddr: 0x1000123F8, symSize: 0x4C }
  - { offsetInCU: 0x2A2C6, offset: 0x2A2C6, size: 0x8, addend: 0x0, symName: __ZN3glm5tvec4IfLNS_9precisionE0EEaSERKS2_, symObjAddr: 0x11548, symBinAddr: 0x100012444, symSize: 0x48 }
  - { offsetInCU: 0x2A2FD, offset: 0x2A2FD, size: 0x8, addend: 0x0, symName: __ZN3glm5tvec4IfLNS_9precisionE0EEC1IifiiEET_T0_T1_T2_, symObjAddr: 0x11590, symBinAddr: 0x10001248C, symSize: 0x4C }
  - { offsetInCU: 0x2A385, offset: 0x2A385, size: 0x8, addend: 0x0, symName: __ZN3glm5tvec4IfLNS_9precisionE0EEC1IiifiEET_T0_T1_T2_, symObjAddr: 0x115DC, symBinAddr: 0x1000124D8, symSize: 0x4C }
  - { offsetInCU: 0x2A40D, offset: 0x2A40D, size: 0x8, addend: 0x0, symName: __ZN3glm5tvec4IfLNS_9precisionE0EEC1IiiifEET_T0_T1_T2_, symObjAddr: 0x11628, symBinAddr: 0x100012524, symSize: 0x4C }
  - { offsetInCU: 0x2A495, offset: 0x2A495, size: 0x8, addend: 0x0, symName: __ZN3glm5tvec4IfLNS_9precisionE0EEC2Ev, symObjAddr: 0x11674, symBinAddr: 0x100012570, symSize: 0x28 }
  - { offsetInCU: 0x2A4C1, offset: 0x2A4C1, size: 0x8, addend: 0x0, symName: __ZN3glm5tvec4IfLNS_9precisionE0EEC2IfiiiEET_T0_T1_T2_, symObjAddr: 0x1169C, symBinAddr: 0x100012598, symSize: 0x50 }
  - { offsetInCU: 0x2A549, offset: 0x2A549, size: 0x8, addend: 0x0, symName: __ZN3glm5tvec4IfLNS_9precisionE0EEC2IifiiEET_T0_T1_T2_, symObjAddr: 0x116EC, symBinAddr: 0x1000125E8, symSize: 0x50 }
  - { offsetInCU: 0x2A5D1, offset: 0x2A5D1, size: 0x8, addend: 0x0, symName: __ZN3glm5tvec4IfLNS_9precisionE0EEC2IiifiEET_T0_T1_T2_, symObjAddr: 0x1173C, symBinAddr: 0x100012638, symSize: 0x50 }
  - { offsetInCU: 0x2A659, offset: 0x2A659, size: 0x8, addend: 0x0, symName: __ZN3glm5tvec4IfLNS_9precisionE0EEC2IiiifEET_T0_T1_T2_, symObjAddr: 0x1178C, symBinAddr: 0x100012688, symSize: 0x50 }
  - { offsetInCU: 0x26, offset: 0x2AA10, size: 0x8, addend: 0x0, symName: _gladLoadGL, symObjAddr: 0x0, symBinAddr: 0x100012804, symSize: 0x4C }
  - { offsetInCU: 0x40, offset: 0x2AA2A, size: 0x8, addend: 0x0, symName: _GLVersion, symObjAddr: 0x248D0, symBinAddr: 0x100020080, symSize: 0x0 }
  - { offsetInCU: 0x7F, offset: 0x2AA69, size: 0x8, addend: 0x0, symName: _GLAD_GL_VERSION_1_0, symObjAddr: 0x248D8, symBinAddr: 0x100020088, symSize: 0x0 }
  - { offsetInCU: 0x96, offset: 0x2AA80, size: 0x8, addend: 0x0, symName: _GLAD_GL_VERSION_1_1, symObjAddr: 0x248DC, symBinAddr: 0x10002008C, symSize: 0x0 }
  - { offsetInCU: 0xAD, offset: 0x2AA97, size: 0x8, addend: 0x0, symName: _GLAD_GL_VERSION_1_2, symObjAddr: 0x248E0, symBinAddr: 0x100020090, symSize: 0x0 }
  - { offsetInCU: 0xC4, offset: 0x2AAAE, size: 0x8, addend: 0x0, symName: _GLAD_GL_VERSION_1_3, symObjAddr: 0x248E4, symBinAddr: 0x100020094, symSize: 0x0 }
  - { offsetInCU: 0xDB, offset: 0x2AAC5, size: 0x8, addend: 0x0, symName: _GLAD_GL_VERSION_1_4, symObjAddr: 0x248E8, symBinAddr: 0x100020098, symSize: 0x0 }
  - { offsetInCU: 0xF2, offset: 0x2AADC, size: 0x8, addend: 0x0, symName: _GLAD_GL_VERSION_1_5, symObjAddr: 0x248EC, symBinAddr: 0x10002009C, symSize: 0x0 }
  - { offsetInCU: 0x109, offset: 0x2AAF3, size: 0x8, addend: 0x0, symName: _GLAD_GL_VERSION_2_0, symObjAddr: 0x248F0, symBinAddr: 0x1000200A0, symSize: 0x0 }
  - { offsetInCU: 0x120, offset: 0x2AB0A, size: 0x8, addend: 0x0, symName: _GLAD_GL_VERSION_2_1, symObjAddr: 0x248F4, symBinAddr: 0x1000200A4, symSize: 0x0 }
  - { offsetInCU: 0x137, offset: 0x2AB21, size: 0x8, addend: 0x0, symName: _GLAD_GL_VERSION_3_0, symObjAddr: 0x248F8, symBinAddr: 0x1000200A8, symSize: 0x0 }
  - { offsetInCU: 0x14E, offset: 0x2AB38, size: 0x8, addend: 0x0, symName: _GLAD_GL_VERSION_3_1, symObjAddr: 0x248FC, symBinAddr: 0x1000200AC, symSize: 0x0 }
  - { offsetInCU: 0x165, offset: 0x2AB4F, size: 0x8, addend: 0x0, symName: _GLAD_GL_VERSION_3_2, symObjAddr: 0x24900, symBinAddr: 0x1000200B0, symSize: 0x0 }
  - { offsetInCU: 0x17C, offset: 0x2AB66, size: 0x8, addend: 0x0, symName: _GLAD_GL_VERSION_3_3, symObjAddr: 0x24904, symBinAddr: 0x1000200B4, symSize: 0x0 }
  - { offsetInCU: 0x193, offset: 0x2AB7D, size: 0x8, addend: 0x0, symName: _GLAD_GL_VERSION_4_0, symObjAddr: 0x24908, symBinAddr: 0x1000200B8, symSize: 0x0 }
  - { offsetInCU: 0x1AA, offset: 0x2AB94, size: 0x8, addend: 0x0, symName: _GLAD_GL_VERSION_4_1, symObjAddr: 0x2490C, symBinAddr: 0x1000200BC, symSize: 0x0 }
  - { offsetInCU: 0x1C1, offset: 0x2ABAB, size: 0x8, addend: 0x0, symName: _GLAD_GL_VERSION_4_2, symObjAddr: 0x24910, symBinAddr: 0x1000200C0, symSize: 0x0 }
  - { offsetInCU: 0x1D8, offset: 0x2ABC2, size: 0x8, addend: 0x0, symName: _GLAD_GL_VERSION_4_3, symObjAddr: 0x24914, symBinAddr: 0x1000200C4, symSize: 0x0 }
  - { offsetInCU: 0x1EF, offset: 0x2ABD9, size: 0x8, addend: 0x0, symName: _GLAD_GL_VERSION_4_4, symObjAddr: 0x24918, symBinAddr: 0x1000200C8, symSize: 0x0 }
  - { offsetInCU: 0x206, offset: 0x2ABF0, size: 0x8, addend: 0x0, symName: _glad_glActiveShaderProgram, symObjAddr: 0x24920, symBinAddr: 0x1000200D0, symSize: 0x0 }
  - { offsetInCU: 0x242, offset: 0x2AC2C, size: 0x8, addend: 0x0, symName: _glad_glActiveTexture, symObjAddr: 0x24928, symBinAddr: 0x1000200D8, symSize: 0x0 }
  - { offsetInCU: 0x27D, offset: 0x2AC67, size: 0x8, addend: 0x0, symName: _glad_glAttachShader, symObjAddr: 0x24930, symBinAddr: 0x1000200E0, symSize: 0x0 }
  - { offsetInCU: 0x2A0, offset: 0x2AC8A, size: 0x8, addend: 0x0, symName: _glad_glBeginConditionalRender, symObjAddr: 0x24938, symBinAddr: 0x1000200E8, symSize: 0x0 }
  - { offsetInCU: 0x2D5, offset: 0x2ACBF, size: 0x8, addend: 0x0, symName: _glad_glBeginQuery, symObjAddr: 0x24940, symBinAddr: 0x1000200F0, symSize: 0x0 }
  - { offsetInCU: 0x30A, offset: 0x2ACF4, size: 0x8, addend: 0x0, symName: _glad_glBeginQueryIndexed, symObjAddr: 0x24948, symBinAddr: 0x1000200F8, symSize: 0x0 }
  - { offsetInCU: 0x344, offset: 0x2AD2E, size: 0x8, addend: 0x0, symName: _glad_glBeginTransformFeedback, symObjAddr: 0x24950, symBinAddr: 0x100020100, symSize: 0x0 }
  - { offsetInCU: 0x367, offset: 0x2AD51, size: 0x8, addend: 0x0, symName: _glad_glBindAttribLocation, symObjAddr: 0x24958, symBinAddr: 0x100020108, symSize: 0x0 }
  - { offsetInCU: 0x3BD, offset: 0x2ADA7, size: 0x8, addend: 0x0, symName: _glad_glBindBuffer, symObjAddr: 0x24960, symBinAddr: 0x100020110, symSize: 0x0 }
  - { offsetInCU: 0x3E0, offset: 0x2ADCA, size: 0x8, addend: 0x0, symName: _glad_glBindBufferBase, symObjAddr: 0x24968, symBinAddr: 0x100020118, symSize: 0x0 }
  - { offsetInCU: 0x403, offset: 0x2ADED, size: 0x8, addend: 0x0, symName: _glad_glBindBufferRange, symObjAddr: 0x24970, symBinAddr: 0x100020120, symSize: 0x0 }
  - { offsetInCU: 0x47C, offset: 0x2AE66, size: 0x8, addend: 0x0, symName: _glad_glBindBuffersBase, symObjAddr: 0x24978, symBinAddr: 0x100020128, symSize: 0x0 }
  - { offsetInCU: 0x4D0, offset: 0x2AEBA, size: 0x8, addend: 0x0, symName: _glad_glBindBuffersRange, symObjAddr: 0x24980, symBinAddr: 0x100020130, symSize: 0x0 }
  - { offsetInCU: 0x52D, offset: 0x2AF17, size: 0x8, addend: 0x0, symName: _glad_glBindFragDataLocation, symObjAddr: 0x24988, symBinAddr: 0x100020138, symSize: 0x0 }
  - { offsetInCU: 0x550, offset: 0x2AF3A, size: 0x8, addend: 0x0, symName: _glad_glBindFragDataLocationIndexed, symObjAddr: 0x24990, symBinAddr: 0x100020140, symSize: 0x0 }
  - { offsetInCU: 0x58F, offset: 0x2AF79, size: 0x8, addend: 0x0, symName: _glad_glBindFramebuffer, symObjAddr: 0x24998, symBinAddr: 0x100020148, symSize: 0x0 }
  - { offsetInCU: 0x5B2, offset: 0x2AF9C, size: 0x8, addend: 0x0, symName: _glad_glBindImageTexture, symObjAddr: 0x249A0, symBinAddr: 0x100020150, symSize: 0x0 }
  - { offsetInCU: 0x61D, offset: 0x2B007, size: 0x8, addend: 0x0, symName: _glad_glBindImageTextures, symObjAddr: 0x249A8, symBinAddr: 0x100020158, symSize: 0x0 }
  - { offsetInCU: 0x657, offset: 0x2B041, size: 0x8, addend: 0x0, symName: _glad_glBindProgramPipeline, symObjAddr: 0x249B0, symBinAddr: 0x100020160, symSize: 0x0 }
  - { offsetInCU: 0x687, offset: 0x2B071, size: 0x8, addend: 0x0, symName: _glad_glBindRenderbuffer, symObjAddr: 0x249B8, symBinAddr: 0x100020168, symSize: 0x0 }
  - { offsetInCU: 0x6AA, offset: 0x2B094, size: 0x8, addend: 0x0, symName: _glad_glBindSampler, symObjAddr: 0x249C0, symBinAddr: 0x100020170, symSize: 0x0 }
  - { offsetInCU: 0x6CD, offset: 0x2B0B7, size: 0x8, addend: 0x0, symName: _glad_glBindSamplers, symObjAddr: 0x249C8, symBinAddr: 0x100020178, symSize: 0x0 }
  - { offsetInCU: 0x6F0, offset: 0x2B0DA, size: 0x8, addend: 0x0, symName: _glad_glBindTexture, symObjAddr: 0x249D0, symBinAddr: 0x100020180, symSize: 0x0 }
  - { offsetInCU: 0x713, offset: 0x2B0FD, size: 0x8, addend: 0x0, symName: _glad_glBindTextures, symObjAddr: 0x249D8, symBinAddr: 0x100020188, symSize: 0x0 }
  - { offsetInCU: 0x736, offset: 0x2B120, size: 0x8, addend: 0x0, symName: _glad_glBindTransformFeedback, symObjAddr: 0x249E0, symBinAddr: 0x100020190, symSize: 0x0 }
  - { offsetInCU: 0x759, offset: 0x2B143, size: 0x8, addend: 0x0, symName: _glad_glBindVertexArray, symObjAddr: 0x249E8, symBinAddr: 0x100020198, symSize: 0x0 }
  - { offsetInCU: 0x77C, offset: 0x2B166, size: 0x8, addend: 0x0, symName: _glad_glBindVertexBuffer, symObjAddr: 0x249F0, symBinAddr: 0x1000201A0, symSize: 0x0 }
  - { offsetInCU: 0x7BB, offset: 0x2B1A5, size: 0x8, addend: 0x0, symName: _glad_glBindVertexBuffers, symObjAddr: 0x249F8, symBinAddr: 0x1000201A8, symSize: 0x0 }
  - { offsetInCU: 0x809, offset: 0x2B1F3, size: 0x8, addend: 0x0, symName: _glad_glBlendColor, symObjAddr: 0x24A00, symBinAddr: 0x1000201B0, symSize: 0x0 }
  - { offsetInCU: 0x866, offset: 0x2B250, size: 0x8, addend: 0x0, symName: _glad_glBlendEquation, symObjAddr: 0x24A08, symBinAddr: 0x1000201B8, symSize: 0x0 }
  - { offsetInCU: 0x889, offset: 0x2B273, size: 0x8, addend: 0x0, symName: _glad_glBlendEquationSeparate, symObjAddr: 0x24A10, symBinAddr: 0x1000201C0, symSize: 0x0 }
  - { offsetInCU: 0x8BE, offset: 0x2B2A8, size: 0x8, addend: 0x0, symName: _glad_glBlendEquationSeparatei, symObjAddr: 0x24A18, symBinAddr: 0x1000201C8, symSize: 0x0 }
  - { offsetInCU: 0x8F8, offset: 0x2B2E2, size: 0x8, addend: 0x0, symName: _glad_glBlendEquationi, symObjAddr: 0x24A20, symBinAddr: 0x1000201D0, symSize: 0x0 }
  - { offsetInCU: 0x91B, offset: 0x2B305, size: 0x8, addend: 0x0, symName: _glad_glBlendFunc, symObjAddr: 0x24A28, symBinAddr: 0x1000201D8, symSize: 0x0 }
  - { offsetInCU: 0x93E, offset: 0x2B328, size: 0x8, addend: 0x0, symName: _glad_glBlendFuncSeparate, symObjAddr: 0x24A30, symBinAddr: 0x1000201E0, symSize: 0x0 }
  - { offsetInCU: 0x97D, offset: 0x2B367, size: 0x8, addend: 0x0, symName: _glad_glBlendFuncSeparatei, symObjAddr: 0x24A38, symBinAddr: 0x1000201E8, symSize: 0x0 }
  - { offsetInCU: 0x9C1, offset: 0x2B3AB, size: 0x8, addend: 0x0, symName: _glad_glBlendFunci, symObjAddr: 0x24A40, symBinAddr: 0x1000201F0, symSize: 0x0 }
  - { offsetInCU: 0x9E4, offset: 0x2B3CE, size: 0x8, addend: 0x0, symName: _glad_glBlitFramebuffer, symObjAddr: 0x24A48, symBinAddr: 0x1000201F8, symSize: 0x0 }
  - { offsetInCU: 0xA4C, offset: 0x2B436, size: 0x8, addend: 0x0, symName: _glad_glBufferData, symObjAddr: 0x24A50, symBinAddr: 0x100020200, symSize: 0x0 }
  - { offsetInCU: 0xA92, offset: 0x2B47C, size: 0x8, addend: 0x0, symName: _glad_glBufferStorage, symObjAddr: 0x24A58, symBinAddr: 0x100020208, symSize: 0x0 }
  - { offsetInCU: 0xAD1, offset: 0x2B4BB, size: 0x8, addend: 0x0, symName: _glad_glBufferSubData, symObjAddr: 0x24A60, symBinAddr: 0x100020210, symSize: 0x0 }
  - { offsetInCU: 0xB10, offset: 0x2B4FA, size: 0x8, addend: 0x0, symName: _glad_glCheckFramebufferStatus, symObjAddr: 0x24A68, symBinAddr: 0x100020218, symSize: 0x0 }
  - { offsetInCU: 0xB44, offset: 0x2B52E, size: 0x8, addend: 0x0, symName: _glad_glClampColor, symObjAddr: 0x24A70, symBinAddr: 0x100020220, symSize: 0x0 }
  - { offsetInCU: 0xB67, offset: 0x2B551, size: 0x8, addend: 0x0, symName: _glad_glClear, symObjAddr: 0x24A78, symBinAddr: 0x100020228, symSize: 0x0 }
  - { offsetInCU: 0xB97, offset: 0x2B581, size: 0x8, addend: 0x0, symName: _glad_glClearBufferData, symObjAddr: 0x24A80, symBinAddr: 0x100020230, symSize: 0x0 }
  - { offsetInCU: 0xBDB, offset: 0x2B5C5, size: 0x8, addend: 0x0, symName: _glad_glClearBufferSubData, symObjAddr: 0x24A88, symBinAddr: 0x100020238, symSize: 0x0 }
  - { offsetInCU: 0xC29, offset: 0x2B613, size: 0x8, addend: 0x0, symName: _glad_glClearBufferfi, symObjAddr: 0x24A90, symBinAddr: 0x100020240, symSize: 0x0 }
  - { offsetInCU: 0xC68, offset: 0x2B652, size: 0x8, addend: 0x0, symName: _glad_glClearBufferfv, symObjAddr: 0x24A98, symBinAddr: 0x100020248, symSize: 0x0 }
  - { offsetInCU: 0xCAC, offset: 0x2B696, size: 0x8, addend: 0x0, symName: _glad_glClearBufferiv, symObjAddr: 0x24AA0, symBinAddr: 0x100020250, symSize: 0x0 }
  - { offsetInCU: 0xCF0, offset: 0x2B6DA, size: 0x8, addend: 0x0, symName: _glad_glClearBufferuiv, symObjAddr: 0x24AA8, symBinAddr: 0x100020258, symSize: 0x0 }
  - { offsetInCU: 0xD2A, offset: 0x2B714, size: 0x8, addend: 0x0, symName: _glad_glClearColor, symObjAddr: 0x24AB0, symBinAddr: 0x100020260, symSize: 0x0 }
  - { offsetInCU: 0xD4D, offset: 0x2B737, size: 0x8, addend: 0x0, symName: _glad_glClearDepth, symObjAddr: 0x24AB8, symBinAddr: 0x100020268, symSize: 0x0 }
  - { offsetInCU: 0xD8F, offset: 0x2B779, size: 0x8, addend: 0x0, symName: _glad_glClearDepthf, symObjAddr: 0x24AC0, symBinAddr: 0x100020270, symSize: 0x0 }
  - { offsetInCU: 0xDBF, offset: 0x2B7A9, size: 0x8, addend: 0x0, symName: _glad_glClearStencil, symObjAddr: 0x24AC8, symBinAddr: 0x100020278, symSize: 0x0 }
  - { offsetInCU: 0xDEF, offset: 0x2B7D9, size: 0x8, addend: 0x0, symName: _glad_glClearTexImage, symObjAddr: 0x24AD0, symBinAddr: 0x100020280, symSize: 0x0 }
  - { offsetInCU: 0xE33, offset: 0x2B81D, size: 0x8, addend: 0x0, symName: _glad_glClearTexSubImage, symObjAddr: 0x24AD8, symBinAddr: 0x100020288, symSize: 0x0 }
  - { offsetInCU: 0xE95, offset: 0x2B87F, size: 0x8, addend: 0x0, symName: _glad_glClientWaitSync, symObjAddr: 0x24AE0, symBinAddr: 0x100020290, symSize: 0x0 }
  - { offsetInCU: 0xF05, offset: 0x2B8EF, size: 0x8, addend: 0x0, symName: _glad_glColorMask, symObjAddr: 0x24AE8, symBinAddr: 0x100020298, symSize: 0x0 }
  - { offsetInCU: 0xF44, offset: 0x2B92E, size: 0x8, addend: 0x0, symName: _glad_glColorMaski, symObjAddr: 0x24AF0, symBinAddr: 0x1000202A0, symSize: 0x0 }
  - { offsetInCU: 0xF88, offset: 0x2B972, size: 0x8, addend: 0x0, symName: _glad_glColorP3ui, symObjAddr: 0x24AF8, symBinAddr: 0x1000202A8, symSize: 0x0 }
  - { offsetInCU: 0xFAB, offset: 0x2B995, size: 0x8, addend: 0x0, symName: _glad_glColorP3uiv, symObjAddr: 0x24B00, symBinAddr: 0x1000202B0, symSize: 0x0 }
  - { offsetInCU: 0xFE0, offset: 0x2B9CA, size: 0x8, addend: 0x0, symName: _glad_glColorP4ui, symObjAddr: 0x24B08, symBinAddr: 0x1000202B8, symSize: 0x0 }
  - { offsetInCU: 0x1003, offset: 0x2B9ED, size: 0x8, addend: 0x0, symName: _glad_glColorP4uiv, symObjAddr: 0x24B10, symBinAddr: 0x1000202C0, symSize: 0x0 }
  - { offsetInCU: 0x1026, offset: 0x2BA10, size: 0x8, addend: 0x0, symName: _glad_glCompileShader, symObjAddr: 0x24B18, symBinAddr: 0x1000202C8, symSize: 0x0 }
  - { offsetInCU: 0x1049, offset: 0x2BA33, size: 0x8, addend: 0x0, symName: _glad_glCompressedTexImage1D, symObjAddr: 0x24B20, symBinAddr: 0x1000202D0, symSize: 0x0 }
  - { offsetInCU: 0x1097, offset: 0x2BA81, size: 0x8, addend: 0x0, symName: _glad_glCompressedTexImage2D, symObjAddr: 0x24B28, symBinAddr: 0x1000202D8, symSize: 0x0 }
  - { offsetInCU: 0x10EA, offset: 0x2BAD4, size: 0x8, addend: 0x0, symName: _glad_glCompressedTexImage3D, symObjAddr: 0x24B30, symBinAddr: 0x1000202E0, symSize: 0x0 }
  - { offsetInCU: 0x1142, offset: 0x2BB2C, size: 0x8, addend: 0x0, symName: _glad_glCompressedTexSubImage1D, symObjAddr: 0x24B38, symBinAddr: 0x1000202E8, symSize: 0x0 }
  - { offsetInCU: 0x1190, offset: 0x2BB7A, size: 0x8, addend: 0x0, symName: _glad_glCompressedTexSubImage2D, symObjAddr: 0x24B40, symBinAddr: 0x1000202F0, symSize: 0x0 }
  - { offsetInCU: 0x11E8, offset: 0x2BBD2, size: 0x8, addend: 0x0, symName: _glad_glCompressedTexSubImage3D, symObjAddr: 0x24B48, symBinAddr: 0x1000202F8, symSize: 0x0 }
  - { offsetInCU: 0x124A, offset: 0x2BC34, size: 0x8, addend: 0x0, symName: _glad_glCopyBufferSubData, symObjAddr: 0x24B50, symBinAddr: 0x100020300, symSize: 0x0 }
  - { offsetInCU: 0x128E, offset: 0x2BC78, size: 0x8, addend: 0x0, symName: _glad_glCopyImageSubData, symObjAddr: 0x24B58, symBinAddr: 0x100020308, symSize: 0x0 }
  - { offsetInCU: 0x1304, offset: 0x2BCEE, size: 0x8, addend: 0x0, symName: _glad_glCopyTexImage1D, symObjAddr: 0x24B60, symBinAddr: 0x100020310, symSize: 0x0 }
  - { offsetInCU: 0x1352, offset: 0x2BD3C, size: 0x8, addend: 0x0, symName: _glad_glCopyTexImage2D, symObjAddr: 0x24B68, symBinAddr: 0x100020318, symSize: 0x0 }
  - { offsetInCU: 0x13A5, offset: 0x2BD8F, size: 0x8, addend: 0x0, symName: _glad_glCopyTexSubImage1D, symObjAddr: 0x24B70, symBinAddr: 0x100020320, symSize: 0x0 }
  - { offsetInCU: 0x13EE, offset: 0x2BDD8, size: 0x8, addend: 0x0, symName: _glad_glCopyTexSubImage2D, symObjAddr: 0x24B78, symBinAddr: 0x100020328, symSize: 0x0 }
  - { offsetInCU: 0x1441, offset: 0x2BE2B, size: 0x8, addend: 0x0, symName: _glad_glCopyTexSubImage3D, symObjAddr: 0x24B80, symBinAddr: 0x100020330, symSize: 0x0 }
  - { offsetInCU: 0x1499, offset: 0x2BE83, size: 0x8, addend: 0x0, symName: _glad_glCreateProgram, symObjAddr: 0x24B88, symBinAddr: 0x100020338, symSize: 0x0 }
  - { offsetInCU: 0x14C7, offset: 0x2BEB1, size: 0x8, addend: 0x0, symName: _glad_glCreateShader, symObjAddr: 0x24B90, symBinAddr: 0x100020340, symSize: 0x0 }
  - { offsetInCU: 0x14FB, offset: 0x2BEE5, size: 0x8, addend: 0x0, symName: _glad_glCreateShaderProgramv, symObjAddr: 0x24B98, symBinAddr: 0x100020348, symSize: 0x0 }
  - { offsetInCU: 0x1543, offset: 0x2BF2D, size: 0x8, addend: 0x0, symName: _glad_glCullFace, symObjAddr: 0x24BA0, symBinAddr: 0x100020350, symSize: 0x0 }
  - { offsetInCU: 0x1566, offset: 0x2BF50, size: 0x8, addend: 0x0, symName: _glad_glDebugMessageCallback, symObjAddr: 0x24BA8, symBinAddr: 0x100020358, symSize: 0x0 }
  - { offsetInCU: 0x15D1, offset: 0x2BFBB, size: 0x8, addend: 0x0, symName: _glad_glDebugMessageControl, symObjAddr: 0x24BB0, symBinAddr: 0x100020360, symSize: 0x0 }
  - { offsetInCU: 0x161A, offset: 0x2C004, size: 0x8, addend: 0x0, symName: _glad_glDebugMessageInsert, symObjAddr: 0x24BB8, symBinAddr: 0x100020368, symSize: 0x0 }
  - { offsetInCU: 0x1663, offset: 0x2C04D, size: 0x8, addend: 0x0, symName: _glad_glDeleteBuffers, symObjAddr: 0x24BC0, symBinAddr: 0x100020370, symSize: 0x0 }
  - { offsetInCU: 0x1698, offset: 0x2C082, size: 0x8, addend: 0x0, symName: _glad_glDeleteFramebuffers, symObjAddr: 0x24BC8, symBinAddr: 0x100020378, symSize: 0x0 }
  - { offsetInCU: 0x16BB, offset: 0x2C0A5, size: 0x8, addend: 0x0, symName: _glad_glDeleteProgram, symObjAddr: 0x24BD0, symBinAddr: 0x100020380, symSize: 0x0 }
  - { offsetInCU: 0x16DE, offset: 0x2C0C8, size: 0x8, addend: 0x0, symName: _glad_glDeleteProgramPipelines, symObjAddr: 0x24BD8, symBinAddr: 0x100020388, symSize: 0x0 }
  - { offsetInCU: 0x1701, offset: 0x2C0EB, size: 0x8, addend: 0x0, symName: _glad_glDeleteQueries, symObjAddr: 0x24BE0, symBinAddr: 0x100020390, symSize: 0x0 }
  - { offsetInCU: 0x1724, offset: 0x2C10E, size: 0x8, addend: 0x0, symName: _glad_glDeleteRenderbuffers, symObjAddr: 0x24BE8, symBinAddr: 0x100020398, symSize: 0x0 }
  - { offsetInCU: 0x1747, offset: 0x2C131, size: 0x8, addend: 0x0, symName: _glad_glDeleteSamplers, symObjAddr: 0x24BF0, symBinAddr: 0x1000203A0, symSize: 0x0 }
  - { offsetInCU: 0x176A, offset: 0x2C154, size: 0x8, addend: 0x0, symName: _glad_glDeleteShader, symObjAddr: 0x24BF8, symBinAddr: 0x1000203A8, symSize: 0x0 }
  - { offsetInCU: 0x178D, offset: 0x2C177, size: 0x8, addend: 0x0, symName: _glad_glDeleteSync, symObjAddr: 0x24C00, symBinAddr: 0x1000203B0, symSize: 0x0 }
  - { offsetInCU: 0x17BD, offset: 0x2C1A7, size: 0x8, addend: 0x0, symName: _glad_glDeleteTextures, symObjAddr: 0x24C08, symBinAddr: 0x1000203B8, symSize: 0x0 }
  - { offsetInCU: 0x17E0, offset: 0x2C1CA, size: 0x8, addend: 0x0, symName: _glad_glDeleteTransformFeedbacks, symObjAddr: 0x24C10, symBinAddr: 0x1000203C0, symSize: 0x0 }
  - { offsetInCU: 0x1803, offset: 0x2C1ED, size: 0x8, addend: 0x0, symName: _glad_glDeleteVertexArrays, symObjAddr: 0x24C18, symBinAddr: 0x1000203C8, symSize: 0x0 }
  - { offsetInCU: 0x1826, offset: 0x2C210, size: 0x8, addend: 0x0, symName: _glad_glDepthFunc, symObjAddr: 0x24C20, symBinAddr: 0x1000203D0, symSize: 0x0 }
  - { offsetInCU: 0x1849, offset: 0x2C233, size: 0x8, addend: 0x0, symName: _glad_glDepthMask, symObjAddr: 0x24C28, symBinAddr: 0x1000203D8, symSize: 0x0 }
  - { offsetInCU: 0x1879, offset: 0x2C263, size: 0x8, addend: 0x0, symName: _glad_glDepthRange, symObjAddr: 0x24C30, symBinAddr: 0x1000203E0, symSize: 0x0 }
  - { offsetInCU: 0x18AE, offset: 0x2C298, size: 0x8, addend: 0x0, symName: _glad_glDepthRangeArrayv, symObjAddr: 0x24C38, symBinAddr: 0x1000203E8, symSize: 0x0 }
  - { offsetInCU: 0x18F2, offset: 0x2C2DC, size: 0x8, addend: 0x0, symName: _glad_glDepthRangeIndexed, symObjAddr: 0x24C40, symBinAddr: 0x1000203F0, symSize: 0x0 }
  - { offsetInCU: 0x192C, offset: 0x2C316, size: 0x8, addend: 0x0, symName: _glad_glDepthRangef, symObjAddr: 0x24C48, symBinAddr: 0x1000203F8, symSize: 0x0 }
  - { offsetInCU: 0x1961, offset: 0x2C34B, size: 0x8, addend: 0x0, symName: _glad_glDetachShader, symObjAddr: 0x24C50, symBinAddr: 0x100020400, symSize: 0x0 }
  - { offsetInCU: 0x1984, offset: 0x2C36E, size: 0x8, addend: 0x0, symName: _glad_glDisable, symObjAddr: 0x24C58, symBinAddr: 0x100020408, symSize: 0x0 }
  - { offsetInCU: 0x19A7, offset: 0x2C391, size: 0x8, addend: 0x0, symName: _glad_glDisableVertexAttribArray, symObjAddr: 0x24C60, symBinAddr: 0x100020410, symSize: 0x0 }
  - { offsetInCU: 0x19CA, offset: 0x2C3B4, size: 0x8, addend: 0x0, symName: _glad_glDisablei, symObjAddr: 0x24C68, symBinAddr: 0x100020418, symSize: 0x0 }
  - { offsetInCU: 0x19ED, offset: 0x2C3D7, size: 0x8, addend: 0x0, symName: _glad_glDispatchCompute, symObjAddr: 0x24C70, symBinAddr: 0x100020420, symSize: 0x0 }
  - { offsetInCU: 0x1A27, offset: 0x2C411, size: 0x8, addend: 0x0, symName: _glad_glDispatchComputeIndirect, symObjAddr: 0x24C78, symBinAddr: 0x100020428, symSize: 0x0 }
  - { offsetInCU: 0x1A57, offset: 0x2C441, size: 0x8, addend: 0x0, symName: _glad_glDrawArrays, symObjAddr: 0x24C80, symBinAddr: 0x100020430, symSize: 0x0 }
  - { offsetInCU: 0x1A91, offset: 0x2C47B, size: 0x8, addend: 0x0, symName: _glad_glDrawArraysIndirect, symObjAddr: 0x24C88, symBinAddr: 0x100020438, symSize: 0x0 }
  - { offsetInCU: 0x1AC6, offset: 0x2C4B0, size: 0x8, addend: 0x0, symName: _glad_glDrawArraysInstanced, symObjAddr: 0x24C90, symBinAddr: 0x100020440, symSize: 0x0 }
  - { offsetInCU: 0x1B05, offset: 0x2C4EF, size: 0x8, addend: 0x0, symName: _glad_glDrawArraysInstancedBaseInstance, symObjAddr: 0x24C98, symBinAddr: 0x100020448, symSize: 0x0 }
  - { offsetInCU: 0x1B49, offset: 0x2C533, size: 0x8, addend: 0x0, symName: _glad_glDrawBuffer, symObjAddr: 0x24CA0, symBinAddr: 0x100020450, symSize: 0x0 }
  - { offsetInCU: 0x1B6C, offset: 0x2C556, size: 0x8, addend: 0x0, symName: _glad_glDrawBuffers, symObjAddr: 0x24CA8, symBinAddr: 0x100020458, symSize: 0x0 }
  - { offsetInCU: 0x1BAB, offset: 0x2C595, size: 0x8, addend: 0x0, symName: _glad_glDrawElements, symObjAddr: 0x24CB0, symBinAddr: 0x100020460, symSize: 0x0 }
  - { offsetInCU: 0x1BEA, offset: 0x2C5D4, size: 0x8, addend: 0x0, symName: _glad_glDrawElementsBaseVertex, symObjAddr: 0x24CB8, symBinAddr: 0x100020468, symSize: 0x0 }
  - { offsetInCU: 0x1C2E, offset: 0x2C618, size: 0x8, addend: 0x0, symName: _glad_glDrawElementsIndirect, symObjAddr: 0x24CC0, symBinAddr: 0x100020470, symSize: 0x0 }
  - { offsetInCU: 0x1C68, offset: 0x2C652, size: 0x8, addend: 0x0, symName: _glad_glDrawElementsInstanced, symObjAddr: 0x24CC8, symBinAddr: 0x100020478, symSize: 0x0 }
  - { offsetInCU: 0x1CAC, offset: 0x2C696, size: 0x8, addend: 0x0, symName: _glad_glDrawElementsInstancedBaseInstance, symObjAddr: 0x24CD0, symBinAddr: 0x100020480, symSize: 0x0 }
  - { offsetInCU: 0x1CF5, offset: 0x2C6DF, size: 0x8, addend: 0x0, symName: _glad_glDrawElementsInstancedBaseVertex, symObjAddr: 0x24CD8, symBinAddr: 0x100020488, symSize: 0x0 }
  - { offsetInCU: 0x1D3E, offset: 0x2C728, size: 0x8, addend: 0x0, symName: _glad_glDrawElementsInstancedBaseVertexBaseInstance, symObjAddr: 0x24CE0, symBinAddr: 0x100020490, symSize: 0x0 }
  - { offsetInCU: 0x1D8C, offset: 0x2C776, size: 0x8, addend: 0x0, symName: _glad_glDrawRangeElements, symObjAddr: 0x24CE8, symBinAddr: 0x100020498, symSize: 0x0 }
  - { offsetInCU: 0x1DD5, offset: 0x2C7BF, size: 0x8, addend: 0x0, symName: _glad_glDrawRangeElementsBaseVertex, symObjAddr: 0x24CF0, symBinAddr: 0x1000204A0, symSize: 0x0 }
  - { offsetInCU: 0x1E23, offset: 0x2C80D, size: 0x8, addend: 0x0, symName: _glad_glDrawTransformFeedback, symObjAddr: 0x24CF8, symBinAddr: 0x1000204A8, symSize: 0x0 }
  - { offsetInCU: 0x1E46, offset: 0x2C830, size: 0x8, addend: 0x0, symName: _glad_glDrawTransformFeedbackInstanced, symObjAddr: 0x24D00, symBinAddr: 0x1000204B0, symSize: 0x0 }
  - { offsetInCU: 0x1E80, offset: 0x2C86A, size: 0x8, addend: 0x0, symName: _glad_glDrawTransformFeedbackStream, symObjAddr: 0x24D08, symBinAddr: 0x1000204B8, symSize: 0x0 }
  - { offsetInCU: 0x1EA3, offset: 0x2C88D, size: 0x8, addend: 0x0, symName: _glad_glDrawTransformFeedbackStreamInstanced, symObjAddr: 0x24D10, symBinAddr: 0x1000204C0, symSize: 0x0 }
  - { offsetInCU: 0x1EE2, offset: 0x2C8CC, size: 0x8, addend: 0x0, symName: _glad_glEnable, symObjAddr: 0x24D18, symBinAddr: 0x1000204C8, symSize: 0x0 }
  - { offsetInCU: 0x1F05, offset: 0x2C8EF, size: 0x8, addend: 0x0, symName: _glad_glEnableVertexAttribArray, symObjAddr: 0x24D20, symBinAddr: 0x1000204D0, symSize: 0x0 }
  - { offsetInCU: 0x1F28, offset: 0x2C912, size: 0x8, addend: 0x0, symName: _glad_glEnablei, symObjAddr: 0x24D28, symBinAddr: 0x1000204D8, symSize: 0x0 }
  - { offsetInCU: 0x1F4B, offset: 0x2C935, size: 0x8, addend: 0x0, symName: _glad_glEndConditionalRender, symObjAddr: 0x24D30, symBinAddr: 0x1000204E0, symSize: 0x0 }
  - { offsetInCU: 0x1F75, offset: 0x2C95F, size: 0x8, addend: 0x0, symName: _glad_glEndQuery, symObjAddr: 0x24D38, symBinAddr: 0x1000204E8, symSize: 0x0 }
  - { offsetInCU: 0x1F98, offset: 0x2C982, size: 0x8, addend: 0x0, symName: _glad_glEndQueryIndexed, symObjAddr: 0x24D40, symBinAddr: 0x1000204F0, symSize: 0x0 }
  - { offsetInCU: 0x1FBB, offset: 0x2C9A5, size: 0x8, addend: 0x0, symName: _glad_glEndTransformFeedback, symObjAddr: 0x24D48, symBinAddr: 0x1000204F8, symSize: 0x0 }
  - { offsetInCU: 0x1FDE, offset: 0x2C9C8, size: 0x8, addend: 0x0, symName: _glad_glFenceSync, symObjAddr: 0x24D50, symBinAddr: 0x100020500, symSize: 0x0 }
  - { offsetInCU: 0x2017, offset: 0x2CA01, size: 0x8, addend: 0x0, symName: _glad_glFinish, symObjAddr: 0x24D58, symBinAddr: 0x100020508, symSize: 0x0 }
  - { offsetInCU: 0x203A, offset: 0x2CA24, size: 0x8, addend: 0x0, symName: _glad_glFlush, symObjAddr: 0x24D60, symBinAddr: 0x100020510, symSize: 0x0 }
  - { offsetInCU: 0x205D, offset: 0x2CA47, size: 0x8, addend: 0x0, symName: _glad_glFlushMappedBufferRange, symObjAddr: 0x24D68, symBinAddr: 0x100020518, symSize: 0x0 }
  - { offsetInCU: 0x2097, offset: 0x2CA81, size: 0x8, addend: 0x0, symName: _glad_glFramebufferParameteri, symObjAddr: 0x24D70, symBinAddr: 0x100020520, symSize: 0x0 }
  - { offsetInCU: 0x20D1, offset: 0x2CABB, size: 0x8, addend: 0x0, symName: _glad_glFramebufferRenderbuffer, symObjAddr: 0x24D78, symBinAddr: 0x100020528, symSize: 0x0 }
  - { offsetInCU: 0x2110, offset: 0x2CAFA, size: 0x8, addend: 0x0, symName: _glad_glFramebufferTexture, symObjAddr: 0x24D80, symBinAddr: 0x100020530, symSize: 0x0 }
  - { offsetInCU: 0x214F, offset: 0x2CB39, size: 0x8, addend: 0x0, symName: _glad_glFramebufferTexture1D, symObjAddr: 0x24D88, symBinAddr: 0x100020538, symSize: 0x0 }
  - { offsetInCU: 0x2193, offset: 0x2CB7D, size: 0x8, addend: 0x0, symName: _glad_glFramebufferTexture2D, symObjAddr: 0x24D90, symBinAddr: 0x100020540, symSize: 0x0 }
  - { offsetInCU: 0x21B6, offset: 0x2CBA0, size: 0x8, addend: 0x0, symName: _glad_glFramebufferTexture3D, symObjAddr: 0x24D98, symBinAddr: 0x100020548, symSize: 0x0 }
  - { offsetInCU: 0x21FF, offset: 0x2CBE9, size: 0x8, addend: 0x0, symName: _glad_glFramebufferTextureLayer, symObjAddr: 0x24DA0, symBinAddr: 0x100020550, symSize: 0x0 }
  - { offsetInCU: 0x2243, offset: 0x2CC2D, size: 0x8, addend: 0x0, symName: _glad_glFrontFace, symObjAddr: 0x24DA8, symBinAddr: 0x100020558, symSize: 0x0 }
  - { offsetInCU: 0x2266, offset: 0x2CC50, size: 0x8, addend: 0x0, symName: _glad_glGenBuffers, symObjAddr: 0x24DB0, symBinAddr: 0x100020560, symSize: 0x0 }
  - { offsetInCU: 0x22A0, offset: 0x2CC8A, size: 0x8, addend: 0x0, symName: _glad_glGenFramebuffers, symObjAddr: 0x24DB8, symBinAddr: 0x100020568, symSize: 0x0 }
  - { offsetInCU: 0x22C3, offset: 0x2CCAD, size: 0x8, addend: 0x0, symName: _glad_glGenProgramPipelines, symObjAddr: 0x24DC0, symBinAddr: 0x100020570, symSize: 0x0 }
  - { offsetInCU: 0x22E6, offset: 0x2CCD0, size: 0x8, addend: 0x0, symName: _glad_glGenQueries, symObjAddr: 0x24DC8, symBinAddr: 0x100020578, symSize: 0x0 }
  - { offsetInCU: 0x2309, offset: 0x2CCF3, size: 0x8, addend: 0x0, symName: _glad_glGenRenderbuffers, symObjAddr: 0x24DD0, symBinAddr: 0x100020580, symSize: 0x0 }
  - { offsetInCU: 0x232C, offset: 0x2CD16, size: 0x8, addend: 0x0, symName: _glad_glGenSamplers, symObjAddr: 0x24DD8, symBinAddr: 0x100020588, symSize: 0x0 }
  - { offsetInCU: 0x234F, offset: 0x2CD39, size: 0x8, addend: 0x0, symName: _glad_glGenTextures, symObjAddr: 0x24DE0, symBinAddr: 0x100020590, symSize: 0x0 }
  - { offsetInCU: 0x2372, offset: 0x2CD5C, size: 0x8, addend: 0x0, symName: _glad_glGenTransformFeedbacks, symObjAddr: 0x24DE8, symBinAddr: 0x100020598, symSize: 0x0 }
  - { offsetInCU: 0x2395, offset: 0x2CD7F, size: 0x8, addend: 0x0, symName: _glad_glGenVertexArrays, symObjAddr: 0x24DF0, symBinAddr: 0x1000205A0, symSize: 0x0 }
  - { offsetInCU: 0x23B8, offset: 0x2CDA2, size: 0x8, addend: 0x0, symName: _glad_glGenerateMipmap, symObjAddr: 0x24DF8, symBinAddr: 0x1000205A8, symSize: 0x0 }
  - { offsetInCU: 0x23DB, offset: 0x2CDC5, size: 0x8, addend: 0x0, symName: _glad_glGetActiveAtomicCounterBufferiv, symObjAddr: 0x24E00, symBinAddr: 0x1000205B0, symSize: 0x0 }
  - { offsetInCU: 0x241F, offset: 0x2CE09, size: 0x8, addend: 0x0, symName: _glad_glGetActiveAttrib, symObjAddr: 0x24E08, symBinAddr: 0x1000205B8, symSize: 0x0 }
  - { offsetInCU: 0x247C, offset: 0x2CE66, size: 0x8, addend: 0x0, symName: _glad_glGetActiveSubroutineName, symObjAddr: 0x24E10, symBinAddr: 0x1000205C0, symSize: 0x0 }
  - { offsetInCU: 0x24C5, offset: 0x2CEAF, size: 0x8, addend: 0x0, symName: _glad_glGetActiveSubroutineUniformName, symObjAddr: 0x24E18, symBinAddr: 0x1000205C8, symSize: 0x0 }
  - { offsetInCU: 0x24E8, offset: 0x2CED2, size: 0x8, addend: 0x0, symName: _glad_glGetActiveSubroutineUniformiv, symObjAddr: 0x24E20, symBinAddr: 0x1000205D0, symSize: 0x0 }
  - { offsetInCU: 0x252C, offset: 0x2CF16, size: 0x8, addend: 0x0, symName: _glad_glGetActiveUniform, symObjAddr: 0x24E28, symBinAddr: 0x1000205D8, symSize: 0x0 }
  - { offsetInCU: 0x254F, offset: 0x2CF39, size: 0x8, addend: 0x0, symName: _glad_glGetActiveUniformBlockName, symObjAddr: 0x24E30, symBinAddr: 0x1000205E0, symSize: 0x0 }
  - { offsetInCU: 0x2593, offset: 0x2CF7D, size: 0x8, addend: 0x0, symName: _glad_glGetActiveUniformBlockiv, symObjAddr: 0x24E38, symBinAddr: 0x1000205E8, symSize: 0x0 }
  - { offsetInCU: 0x25B6, offset: 0x2CFA0, size: 0x8, addend: 0x0, symName: _glad_glGetActiveUniformName, symObjAddr: 0x24E40, symBinAddr: 0x1000205F0, symSize: 0x0 }
  - { offsetInCU: 0x25D9, offset: 0x2CFC3, size: 0x8, addend: 0x0, symName: _glad_glGetActiveUniformsiv, symObjAddr: 0x24E48, symBinAddr: 0x1000205F8, symSize: 0x0 }
  - { offsetInCU: 0x261D, offset: 0x2D007, size: 0x8, addend: 0x0, symName: _glad_glGetAttachedShaders, symObjAddr: 0x24E50, symBinAddr: 0x100020600, symSize: 0x0 }
  - { offsetInCU: 0x265C, offset: 0x2D046, size: 0x8, addend: 0x0, symName: _glad_glGetAttribLocation, symObjAddr: 0x24E58, symBinAddr: 0x100020608, symSize: 0x0 }
  - { offsetInCU: 0x2695, offset: 0x2D07F, size: 0x8, addend: 0x0, symName: _glad_glGetBooleani_v, symObjAddr: 0x24E60, symBinAddr: 0x100020610, symSize: 0x0 }
  - { offsetInCU: 0x26D4, offset: 0x2D0BE, size: 0x8, addend: 0x0, symName: _glad_glGetBooleanv, symObjAddr: 0x24E68, symBinAddr: 0x100020618, symSize: 0x0 }
  - { offsetInCU: 0x2709, offset: 0x2D0F3, size: 0x8, addend: 0x0, symName: _glad_glGetBufferParameteri64v, symObjAddr: 0x24E70, symBinAddr: 0x100020620, symSize: 0x0 }
  - { offsetInCU: 0x2765, offset: 0x2D14F, size: 0x8, addend: 0x0, symName: _glad_glGetBufferParameteriv, symObjAddr: 0x24E78, symBinAddr: 0x100020628, symSize: 0x0 }
  - { offsetInCU: 0x279F, offset: 0x2D189, size: 0x8, addend: 0x0, symName: _glad_glGetBufferPointerv, symObjAddr: 0x24E80, symBinAddr: 0x100020630, symSize: 0x0 }
  - { offsetInCU: 0x27E0, offset: 0x2D1CA, size: 0x8, addend: 0x0, symName: _glad_glGetBufferSubData, symObjAddr: 0x24E88, symBinAddr: 0x100020638, symSize: 0x0 }
  - { offsetInCU: 0x281F, offset: 0x2D209, size: 0x8, addend: 0x0, symName: _glad_glGetCompressedTexImage, symObjAddr: 0x24E90, symBinAddr: 0x100020640, symSize: 0x0 }
  - { offsetInCU: 0x2859, offset: 0x2D243, size: 0x8, addend: 0x0, symName: _glad_glGetDebugMessageLog, symObjAddr: 0x24E98, symBinAddr: 0x100020648, symSize: 0x0 }
  - { offsetInCU: 0x28B0, offset: 0x2D29A, size: 0x8, addend: 0x0, symName: _glad_glGetDoublei_v, symObjAddr: 0x24EA0, symBinAddr: 0x100020650, symSize: 0x0 }
  - { offsetInCU: 0x28EF, offset: 0x2D2D9, size: 0x8, addend: 0x0, symName: _glad_glGetDoublev, symObjAddr: 0x24EA8, symBinAddr: 0x100020658, symSize: 0x0 }
  - { offsetInCU: 0x2924, offset: 0x2D30E, size: 0x8, addend: 0x0, symName: _glad_glGetError, symObjAddr: 0x24EB0, symBinAddr: 0x100020660, symSize: 0x0 }
  - { offsetInCU: 0x2952, offset: 0x2D33C, size: 0x8, addend: 0x0, symName: _glad_glGetFloati_v, symObjAddr: 0x24EB8, symBinAddr: 0x100020668, symSize: 0x0 }
  - { offsetInCU: 0x2991, offset: 0x2D37B, size: 0x8, addend: 0x0, symName: _glad_glGetFloatv, symObjAddr: 0x24EC0, symBinAddr: 0x100020670, symSize: 0x0 }
  - { offsetInCU: 0x29C6, offset: 0x2D3B0, size: 0x8, addend: 0x0, symName: _glad_glGetFragDataIndex, symObjAddr: 0x24EC8, symBinAddr: 0x100020678, symSize: 0x0 }
  - { offsetInCU: 0x29E9, offset: 0x2D3D3, size: 0x8, addend: 0x0, symName: _glad_glGetFragDataLocation, symObjAddr: 0x24ED0, symBinAddr: 0x100020680, symSize: 0x0 }
  - { offsetInCU: 0x2A0C, offset: 0x2D3F6, size: 0x8, addend: 0x0, symName: _glad_glGetFramebufferAttachmentParameteriv, symObjAddr: 0x24ED8, symBinAddr: 0x100020688, symSize: 0x0 }
  - { offsetInCU: 0x2A4B, offset: 0x2D435, size: 0x8, addend: 0x0, symName: _glad_glGetFramebufferParameteriv, symObjAddr: 0x24EE0, symBinAddr: 0x100020690, symSize: 0x0 }
  - { offsetInCU: 0x2A6E, offset: 0x2D458, size: 0x8, addend: 0x0, symName: _glad_glGetInteger64i_v, symObjAddr: 0x24EE8, symBinAddr: 0x100020698, symSize: 0x0 }
  - { offsetInCU: 0x2AA8, offset: 0x2D492, size: 0x8, addend: 0x0, symName: _glad_glGetInteger64v, symObjAddr: 0x24EF0, symBinAddr: 0x1000206A0, symSize: 0x0 }
  - { offsetInCU: 0x2ADD, offset: 0x2D4C7, size: 0x8, addend: 0x0, symName: _glad_glGetIntegeri_v, symObjAddr: 0x24EF8, symBinAddr: 0x1000206A8, symSize: 0x0 }
  - { offsetInCU: 0x2B17, offset: 0x2D501, size: 0x8, addend: 0x0, symName: _glad_glGetIntegerv, symObjAddr: 0x24F00, symBinAddr: 0x1000206B0, symSize: 0x0 }
  - { offsetInCU: 0x2B4C, offset: 0x2D536, size: 0x8, addend: 0x0, symName: _glad_glGetInternalformati64v, symObjAddr: 0x24F08, symBinAddr: 0x1000206B8, symSize: 0x0 }
  - { offsetInCU: 0x2B90, offset: 0x2D57A, size: 0x8, addend: 0x0, symName: _glad_glGetInternalformativ, symObjAddr: 0x24F10, symBinAddr: 0x1000206C0, symSize: 0x0 }
  - { offsetInCU: 0x2BD4, offset: 0x2D5BE, size: 0x8, addend: 0x0, symName: _glad_glGetMultisamplefv, symObjAddr: 0x24F18, symBinAddr: 0x1000206C8, symSize: 0x0 }
  - { offsetInCU: 0x2BF7, offset: 0x2D5E1, size: 0x8, addend: 0x0, symName: _glad_glGetObjectLabel, symObjAddr: 0x24F20, symBinAddr: 0x1000206D0, symSize: 0x0 }
  - { offsetInCU: 0x2C3B, offset: 0x2D625, size: 0x8, addend: 0x0, symName: _glad_glGetObjectPtrLabel, symObjAddr: 0x24F28, symBinAddr: 0x1000206D8, symSize: 0x0 }
  - { offsetInCU: 0x2C7A, offset: 0x2D664, size: 0x8, addend: 0x0, symName: _glad_glGetPointerv, symObjAddr: 0x24F30, symBinAddr: 0x1000206E0, symSize: 0x0 }
  - { offsetInCU: 0x2CAF, offset: 0x2D699, size: 0x8, addend: 0x0, symName: _glad_glGetProgramBinary, symObjAddr: 0x24F38, symBinAddr: 0x1000206E8, symSize: 0x0 }
  - { offsetInCU: 0x2CF3, offset: 0x2D6DD, size: 0x8, addend: 0x0, symName: _glad_glGetProgramInfoLog, symObjAddr: 0x24F40, symBinAddr: 0x1000206F0, symSize: 0x0 }
  - { offsetInCU: 0x2D32, offset: 0x2D71C, size: 0x8, addend: 0x0, symName: _glad_glGetProgramInterfaceiv, symObjAddr: 0x24F48, symBinAddr: 0x1000206F8, symSize: 0x0 }
  - { offsetInCU: 0x2D71, offset: 0x2D75B, size: 0x8, addend: 0x0, symName: _glad_glGetProgramPipelineInfoLog, symObjAddr: 0x24F50, symBinAddr: 0x100020700, symSize: 0x0 }
  - { offsetInCU: 0x2D94, offset: 0x2D77E, size: 0x8, addend: 0x0, symName: _glad_glGetProgramPipelineiv, symObjAddr: 0x24F58, symBinAddr: 0x100020708, symSize: 0x0 }
  - { offsetInCU: 0x2DCE, offset: 0x2D7B8, size: 0x8, addend: 0x0, symName: _glad_glGetProgramResourceIndex, symObjAddr: 0x24F60, symBinAddr: 0x100020710, symSize: 0x0 }
  - { offsetInCU: 0x2E0C, offset: 0x2D7F6, size: 0x8, addend: 0x0, symName: _glad_glGetProgramResourceLocation, symObjAddr: 0x24F68, symBinAddr: 0x100020718, symSize: 0x0 }
  - { offsetInCU: 0x2E4A, offset: 0x2D834, size: 0x8, addend: 0x0, symName: _glad_glGetProgramResourceLocationIndex, symObjAddr: 0x24F70, symBinAddr: 0x100020720, symSize: 0x0 }
  - { offsetInCU: 0x2E6D, offset: 0x2D857, size: 0x8, addend: 0x0, symName: _glad_glGetProgramResourceName, symObjAddr: 0x24F78, symBinAddr: 0x100020728, symSize: 0x0 }
  - { offsetInCU: 0x2E90, offset: 0x2D87A, size: 0x8, addend: 0x0, symName: _glad_glGetProgramResourceiv, symObjAddr: 0x24F80, symBinAddr: 0x100020730, symSize: 0x0 }
  - { offsetInCU: 0x2EE3, offset: 0x2D8CD, size: 0x8, addend: 0x0, symName: _glad_glGetProgramStageiv, symObjAddr: 0x24F88, symBinAddr: 0x100020738, symSize: 0x0 }
  - { offsetInCU: 0x2F06, offset: 0x2D8F0, size: 0x8, addend: 0x0, symName: _glad_glGetProgramiv, symObjAddr: 0x24F90, symBinAddr: 0x100020740, symSize: 0x0 }
  - { offsetInCU: 0x2F29, offset: 0x2D913, size: 0x8, addend: 0x0, symName: _glad_glGetQueryIndexediv, symObjAddr: 0x24F98, symBinAddr: 0x100020748, symSize: 0x0 }
  - { offsetInCU: 0x2F68, offset: 0x2D952, size: 0x8, addend: 0x0, symName: _glad_glGetQueryObjecti64v, symObjAddr: 0x24FA0, symBinAddr: 0x100020750, symSize: 0x0 }
  - { offsetInCU: 0x2FA2, offset: 0x2D98C, size: 0x8, addend: 0x0, symName: _glad_glGetQueryObjectiv, symObjAddr: 0x24FA8, symBinAddr: 0x100020758, symSize: 0x0 }
  - { offsetInCU: 0x2FC5, offset: 0x2D9AF, size: 0x8, addend: 0x0, symName: _glad_glGetQueryObjectui64v, symObjAddr: 0x24FB0, symBinAddr: 0x100020760, symSize: 0x0 }
  - { offsetInCU: 0x3004, offset: 0x2D9EE, size: 0x8, addend: 0x0, symName: _glad_glGetQueryObjectuiv, symObjAddr: 0x24FB8, symBinAddr: 0x100020768, symSize: 0x0 }
  - { offsetInCU: 0x303E, offset: 0x2DA28, size: 0x8, addend: 0x0, symName: _glad_glGetQueryiv, symObjAddr: 0x24FC0, symBinAddr: 0x100020770, symSize: 0x0 }
  - { offsetInCU: 0x3061, offset: 0x2DA4B, size: 0x8, addend: 0x0, symName: _glad_glGetRenderbufferParameteriv, symObjAddr: 0x24FC8, symBinAddr: 0x100020778, symSize: 0x0 }
  - { offsetInCU: 0x3084, offset: 0x2DA6E, size: 0x8, addend: 0x0, symName: _glad_glGetSamplerParameterIiv, symObjAddr: 0x24FD0, symBinAddr: 0x100020780, symSize: 0x0 }
  - { offsetInCU: 0x30A7, offset: 0x2DA91, size: 0x8, addend: 0x0, symName: _glad_glGetSamplerParameterIuiv, symObjAddr: 0x24FD8, symBinAddr: 0x100020788, symSize: 0x0 }
  - { offsetInCU: 0x30CA, offset: 0x2DAB4, size: 0x8, addend: 0x0, symName: _glad_glGetSamplerParameterfv, symObjAddr: 0x24FE0, symBinAddr: 0x100020790, symSize: 0x0 }
  - { offsetInCU: 0x3104, offset: 0x2DAEE, size: 0x8, addend: 0x0, symName: _glad_glGetSamplerParameteriv, symObjAddr: 0x24FE8, symBinAddr: 0x100020798, symSize: 0x0 }
  - { offsetInCU: 0x3127, offset: 0x2DB11, size: 0x8, addend: 0x0, symName: _glad_glGetShaderInfoLog, symObjAddr: 0x24FF0, symBinAddr: 0x1000207A0, symSize: 0x0 }
  - { offsetInCU: 0x314A, offset: 0x2DB34, size: 0x8, addend: 0x0, symName: _glad_glGetShaderPrecisionFormat, symObjAddr: 0x24FF8, symBinAddr: 0x1000207A8, symSize: 0x0 }
  - { offsetInCU: 0x3189, offset: 0x2DB73, size: 0x8, addend: 0x0, symName: _glad_glGetShaderSource, symObjAddr: 0x25000, symBinAddr: 0x1000207B0, symSize: 0x0 }
  - { offsetInCU: 0x31AC, offset: 0x2DB96, size: 0x8, addend: 0x0, symName: _glad_glGetShaderiv, symObjAddr: 0x25008, symBinAddr: 0x1000207B8, symSize: 0x0 }
  - { offsetInCU: 0x31CF, offset: 0x2DBB9, size: 0x8, addend: 0x0, symName: _glad_glGetString, symObjAddr: 0x25010, symBinAddr: 0x1000207C0, symSize: 0x0 }
  - { offsetInCU: 0x3223, offset: 0x2DC0D, size: 0x8, addend: 0x0, symName: _glad_glGetStringi, symObjAddr: 0x25018, symBinAddr: 0x1000207C8, symSize: 0x0 }
  - { offsetInCU: 0x325C, offset: 0x2DC46, size: 0x8, addend: 0x0, symName: _glad_glGetSubroutineIndex, symObjAddr: 0x25020, symBinAddr: 0x1000207D0, symSize: 0x0 }
  - { offsetInCU: 0x327F, offset: 0x2DC69, size: 0x8, addend: 0x0, symName: _glad_glGetSubroutineUniformLocation, symObjAddr: 0x25028, symBinAddr: 0x1000207D8, symSize: 0x0 }
  - { offsetInCU: 0x32A2, offset: 0x2DC8C, size: 0x8, addend: 0x0, symName: _glad_glGetSynciv, symObjAddr: 0x25030, symBinAddr: 0x1000207E0, symSize: 0x0 }
  - { offsetInCU: 0x32E6, offset: 0x2DCD0, size: 0x8, addend: 0x0, symName: _glad_glGetTexImage, symObjAddr: 0x25038, symBinAddr: 0x1000207E8, symSize: 0x0 }
  - { offsetInCU: 0x332A, offset: 0x2DD14, size: 0x8, addend: 0x0, symName: _glad_glGetTexLevelParameterfv, symObjAddr: 0x25040, symBinAddr: 0x1000207F0, symSize: 0x0 }
  - { offsetInCU: 0x3369, offset: 0x2DD53, size: 0x8, addend: 0x0, symName: _glad_glGetTexLevelParameteriv, symObjAddr: 0x25048, symBinAddr: 0x1000207F8, symSize: 0x0 }
  - { offsetInCU: 0x33A8, offset: 0x2DD92, size: 0x8, addend: 0x0, symName: _glad_glGetTexParameterIiv, symObjAddr: 0x25050, symBinAddr: 0x100020800, symSize: 0x0 }
  - { offsetInCU: 0x33CB, offset: 0x2DDB5, size: 0x8, addend: 0x0, symName: _glad_glGetTexParameterIuiv, symObjAddr: 0x25058, symBinAddr: 0x100020808, symSize: 0x0 }
  - { offsetInCU: 0x3405, offset: 0x2DDEF, size: 0x8, addend: 0x0, symName: _glad_glGetTexParameterfv, symObjAddr: 0x25060, symBinAddr: 0x100020810, symSize: 0x0 }
  - { offsetInCU: 0x343F, offset: 0x2DE29, size: 0x8, addend: 0x0, symName: _glad_glGetTexParameteriv, symObjAddr: 0x25068, symBinAddr: 0x100020818, symSize: 0x0 }
  - { offsetInCU: 0x3462, offset: 0x2DE4C, size: 0x8, addend: 0x0, symName: _glad_glGetTransformFeedbackVarying, symObjAddr: 0x25070, symBinAddr: 0x100020820, symSize: 0x0 }
  - { offsetInCU: 0x34B0, offset: 0x2DE9A, size: 0x8, addend: 0x0, symName: _glad_glGetUniformBlockIndex, symObjAddr: 0x25078, symBinAddr: 0x100020828, symSize: 0x0 }
  - { offsetInCU: 0x34E9, offset: 0x2DED3, size: 0x8, addend: 0x0, symName: _glad_glGetUniformIndices, symObjAddr: 0x25080, symBinAddr: 0x100020830, symSize: 0x0 }
  - { offsetInCU: 0x3528, offset: 0x2DF12, size: 0x8, addend: 0x0, symName: _glad_glGetUniformLocation, symObjAddr: 0x25088, symBinAddr: 0x100020838, symSize: 0x0 }
  - { offsetInCU: 0x354B, offset: 0x2DF35, size: 0x8, addend: 0x0, symName: _glad_glGetUniformSubroutineuiv, symObjAddr: 0x25090, symBinAddr: 0x100020840, symSize: 0x0 }
  - { offsetInCU: 0x3585, offset: 0x2DF6F, size: 0x8, addend: 0x0, symName: _glad_glGetUniformdv, symObjAddr: 0x25098, symBinAddr: 0x100020848, symSize: 0x0 }
  - { offsetInCU: 0x35BF, offset: 0x2DFA9, size: 0x8, addend: 0x0, symName: _glad_glGetUniformfv, symObjAddr: 0x250A0, symBinAddr: 0x100020850, symSize: 0x0 }
  - { offsetInCU: 0x35F9, offset: 0x2DFE3, size: 0x8, addend: 0x0, symName: _glad_glGetUniformiv, symObjAddr: 0x250A8, symBinAddr: 0x100020858, symSize: 0x0 }
  - { offsetInCU: 0x3633, offset: 0x2E01D, size: 0x8, addend: 0x0, symName: _glad_glGetUniformuiv, symObjAddr: 0x250B0, symBinAddr: 0x100020860, symSize: 0x0 }
  - { offsetInCU: 0x366D, offset: 0x2E057, size: 0x8, addend: 0x0, symName: _glad_glGetVertexAttribIiv, symObjAddr: 0x250B8, symBinAddr: 0x100020868, symSize: 0x0 }
  - { offsetInCU: 0x3690, offset: 0x2E07A, size: 0x8, addend: 0x0, symName: _glad_glGetVertexAttribIuiv, symObjAddr: 0x250C0, symBinAddr: 0x100020870, symSize: 0x0 }
  - { offsetInCU: 0x36B3, offset: 0x2E09D, size: 0x8, addend: 0x0, symName: _glad_glGetVertexAttribLdv, symObjAddr: 0x250C8, symBinAddr: 0x100020878, symSize: 0x0 }
  - { offsetInCU: 0x36ED, offset: 0x2E0D7, size: 0x8, addend: 0x0, symName: _glad_glGetVertexAttribPointerv, symObjAddr: 0x250D0, symBinAddr: 0x100020880, symSize: 0x0 }
  - { offsetInCU: 0x3727, offset: 0x2E111, size: 0x8, addend: 0x0, symName: _glad_glGetVertexAttribdv, symObjAddr: 0x250D8, symBinAddr: 0x100020888, symSize: 0x0 }
  - { offsetInCU: 0x374A, offset: 0x2E134, size: 0x8, addend: 0x0, symName: _glad_glGetVertexAttribfv, symObjAddr: 0x250E0, symBinAddr: 0x100020890, symSize: 0x0 }
  - { offsetInCU: 0x376D, offset: 0x2E157, size: 0x8, addend: 0x0, symName: _glad_glGetVertexAttribiv, symObjAddr: 0x250E8, symBinAddr: 0x100020898, symSize: 0x0 }
  - { offsetInCU: 0x3790, offset: 0x2E17A, size: 0x8, addend: 0x0, symName: _glad_glHint, symObjAddr: 0x250F0, symBinAddr: 0x1000208A0, symSize: 0x0 }
  - { offsetInCU: 0x37B3, offset: 0x2E19D, size: 0x8, addend: 0x0, symName: _glad_glInvalidateBufferData, symObjAddr: 0x250F8, symBinAddr: 0x1000208A8, symSize: 0x0 }
  - { offsetInCU: 0x37D6, offset: 0x2E1C0, size: 0x8, addend: 0x0, symName: _glad_glInvalidateBufferSubData, symObjAddr: 0x25100, symBinAddr: 0x1000208B0, symSize: 0x0 }
  - { offsetInCU: 0x3810, offset: 0x2E1FA, size: 0x8, addend: 0x0, symName: _glad_glInvalidateFramebuffer, symObjAddr: 0x25108, symBinAddr: 0x1000208B8, symSize: 0x0 }
  - { offsetInCU: 0x384A, offset: 0x2E234, size: 0x8, addend: 0x0, symName: _glad_glInvalidateSubFramebuffer, symObjAddr: 0x25110, symBinAddr: 0x1000208C0, symSize: 0x0 }
  - { offsetInCU: 0x3898, offset: 0x2E282, size: 0x8, addend: 0x0, symName: _glad_glInvalidateTexImage, symObjAddr: 0x25118, symBinAddr: 0x1000208C8, symSize: 0x0 }
  - { offsetInCU: 0x38CD, offset: 0x2E2B7, size: 0x8, addend: 0x0, symName: _glad_glInvalidateTexSubImage, symObjAddr: 0x25120, symBinAddr: 0x1000208D0, symSize: 0x0 }
  - { offsetInCU: 0x3920, offset: 0x2E30A, size: 0x8, addend: 0x0, symName: _glad_glIsBuffer, symObjAddr: 0x25128, symBinAddr: 0x1000208D8, symSize: 0x0 }
  - { offsetInCU: 0x3954, offset: 0x2E33E, size: 0x8, addend: 0x0, symName: _glad_glIsEnabled, symObjAddr: 0x25130, symBinAddr: 0x1000208E0, symSize: 0x0 }
  - { offsetInCU: 0x3988, offset: 0x2E372, size: 0x8, addend: 0x0, symName: _glad_glIsEnabledi, symObjAddr: 0x25138, symBinAddr: 0x1000208E8, symSize: 0x0 }
  - { offsetInCU: 0x39C1, offset: 0x2E3AB, size: 0x8, addend: 0x0, symName: _glad_glIsFramebuffer, symObjAddr: 0x25140, symBinAddr: 0x1000208F0, symSize: 0x0 }
  - { offsetInCU: 0x39E4, offset: 0x2E3CE, size: 0x8, addend: 0x0, symName: _glad_glIsProgram, symObjAddr: 0x25148, symBinAddr: 0x1000208F8, symSize: 0x0 }
  - { offsetInCU: 0x3A07, offset: 0x2E3F1, size: 0x8, addend: 0x0, symName: _glad_glIsProgramPipeline, symObjAddr: 0x25150, symBinAddr: 0x100020900, symSize: 0x0 }
  - { offsetInCU: 0x3A2A, offset: 0x2E414, size: 0x8, addend: 0x0, symName: _glad_glIsQuery, symObjAddr: 0x25158, symBinAddr: 0x100020908, symSize: 0x0 }
  - { offsetInCU: 0x3A4D, offset: 0x2E437, size: 0x8, addend: 0x0, symName: _glad_glIsRenderbuffer, symObjAddr: 0x25160, symBinAddr: 0x100020910, symSize: 0x0 }
  - { offsetInCU: 0x3A70, offset: 0x2E45A, size: 0x8, addend: 0x0, symName: _glad_glIsSampler, symObjAddr: 0x25168, symBinAddr: 0x100020918, symSize: 0x0 }
  - { offsetInCU: 0x3A93, offset: 0x2E47D, size: 0x8, addend: 0x0, symName: _glad_glIsShader, symObjAddr: 0x25170, symBinAddr: 0x100020920, symSize: 0x0 }
  - { offsetInCU: 0x3AB6, offset: 0x2E4A0, size: 0x8, addend: 0x0, symName: _glad_glIsSync, symObjAddr: 0x25178, symBinAddr: 0x100020928, symSize: 0x0 }
  - { offsetInCU: 0x3AEA, offset: 0x2E4D4, size: 0x8, addend: 0x0, symName: _glad_glIsTexture, symObjAddr: 0x25180, symBinAddr: 0x100020930, symSize: 0x0 }
  - { offsetInCU: 0x3B0D, offset: 0x2E4F7, size: 0x8, addend: 0x0, symName: _glad_glIsTransformFeedback, symObjAddr: 0x25188, symBinAddr: 0x100020938, symSize: 0x0 }
  - { offsetInCU: 0x3B30, offset: 0x2E51A, size: 0x8, addend: 0x0, symName: _glad_glIsVertexArray, symObjAddr: 0x25190, symBinAddr: 0x100020940, symSize: 0x0 }
  - { offsetInCU: 0x3B53, offset: 0x2E53D, size: 0x8, addend: 0x0, symName: _glad_glLineWidth, symObjAddr: 0x25198, symBinAddr: 0x100020948, symSize: 0x0 }
  - { offsetInCU: 0x3B76, offset: 0x2E560, size: 0x8, addend: 0x0, symName: _glad_glLinkProgram, symObjAddr: 0x251A0, symBinAddr: 0x100020950, symSize: 0x0 }
  - { offsetInCU: 0x3B99, offset: 0x2E583, size: 0x8, addend: 0x0, symName: _glad_glLogicOp, symObjAddr: 0x251A8, symBinAddr: 0x100020958, symSize: 0x0 }
  - { offsetInCU: 0x3BBC, offset: 0x2E5A6, size: 0x8, addend: 0x0, symName: _glad_glMapBuffer, symObjAddr: 0x251B0, symBinAddr: 0x100020960, symSize: 0x0 }
  - { offsetInCU: 0x3BF5, offset: 0x2E5DF, size: 0x8, addend: 0x0, symName: _glad_glMapBufferRange, symObjAddr: 0x251B8, symBinAddr: 0x100020968, symSize: 0x0 }
  - { offsetInCU: 0x3C38, offset: 0x2E622, size: 0x8, addend: 0x0, symName: _glad_glMemoryBarrier, symObjAddr: 0x251C0, symBinAddr: 0x100020970, symSize: 0x0 }
  - { offsetInCU: 0x3C5B, offset: 0x2E645, size: 0x8, addend: 0x0, symName: _glad_glMinSampleShading, symObjAddr: 0x251C8, symBinAddr: 0x100020978, symSize: 0x0 }
  - { offsetInCU: 0x3C7E, offset: 0x2E668, size: 0x8, addend: 0x0, symName: _glad_glMultiDrawArrays, symObjAddr: 0x251D0, symBinAddr: 0x100020980, symSize: 0x0 }
  - { offsetInCU: 0x3CBD, offset: 0x2E6A7, size: 0x8, addend: 0x0, symName: _glad_glMultiDrawArraysIndirect, symObjAddr: 0x251D8, symBinAddr: 0x100020988, symSize: 0x0 }
  - { offsetInCU: 0x3CFC, offset: 0x2E6E6, size: 0x8, addend: 0x0, symName: _glad_glMultiDrawElements, symObjAddr: 0x251E0, symBinAddr: 0x100020990, symSize: 0x0 }
  - { offsetInCU: 0x3D4A, offset: 0x2E734, size: 0x8, addend: 0x0, symName: _glad_glMultiDrawElementsBaseVertex, symObjAddr: 0x251E8, symBinAddr: 0x100020998, symSize: 0x0 }
  - { offsetInCU: 0x3D93, offset: 0x2E77D, size: 0x8, addend: 0x0, symName: _glad_glMultiDrawElementsIndirect, symObjAddr: 0x251F0, symBinAddr: 0x1000209A0, symSize: 0x0 }
  - { offsetInCU: 0x3DD7, offset: 0x2E7C1, size: 0x8, addend: 0x0, symName: _glad_glMultiTexCoordP1ui, symObjAddr: 0x251F8, symBinAddr: 0x1000209A8, symSize: 0x0 }
  - { offsetInCU: 0x3E11, offset: 0x2E7FB, size: 0x8, addend: 0x0, symName: _glad_glMultiTexCoordP1uiv, symObjAddr: 0x25200, symBinAddr: 0x1000209B0, symSize: 0x0 }
  - { offsetInCU: 0x3E4B, offset: 0x2E835, size: 0x8, addend: 0x0, symName: _glad_glMultiTexCoordP2ui, symObjAddr: 0x25208, symBinAddr: 0x1000209B8, symSize: 0x0 }
  - { offsetInCU: 0x3E6E, offset: 0x2E858, size: 0x8, addend: 0x0, symName: _glad_glMultiTexCoordP2uiv, symObjAddr: 0x25210, symBinAddr: 0x1000209C0, symSize: 0x0 }
  - { offsetInCU: 0x3E91, offset: 0x2E87B, size: 0x8, addend: 0x0, symName: _glad_glMultiTexCoordP3ui, symObjAddr: 0x25218, symBinAddr: 0x1000209C8, symSize: 0x0 }
  - { offsetInCU: 0x3EB4, offset: 0x2E89E, size: 0x8, addend: 0x0, symName: _glad_glMultiTexCoordP3uiv, symObjAddr: 0x25220, symBinAddr: 0x1000209D0, symSize: 0x0 }
  - { offsetInCU: 0x3ED7, offset: 0x2E8C1, size: 0x8, addend: 0x0, symName: _glad_glMultiTexCoordP4ui, symObjAddr: 0x25228, symBinAddr: 0x1000209D8, symSize: 0x0 }
  - { offsetInCU: 0x3EFA, offset: 0x2E8E4, size: 0x8, addend: 0x0, symName: _glad_glMultiTexCoordP4uiv, symObjAddr: 0x25230, symBinAddr: 0x1000209E0, symSize: 0x0 }
  - { offsetInCU: 0x3F1D, offset: 0x2E907, size: 0x8, addend: 0x0, symName: _glad_glNormalP3ui, symObjAddr: 0x25238, symBinAddr: 0x1000209E8, symSize: 0x0 }
  - { offsetInCU: 0x3F40, offset: 0x2E92A, size: 0x8, addend: 0x0, symName: _glad_glNormalP3uiv, symObjAddr: 0x25240, symBinAddr: 0x1000209F0, symSize: 0x0 }
  - { offsetInCU: 0x3F63, offset: 0x2E94D, size: 0x8, addend: 0x0, symName: _glad_glObjectLabel, symObjAddr: 0x25248, symBinAddr: 0x1000209F8, symSize: 0x0 }
  - { offsetInCU: 0x3FA2, offset: 0x2E98C, size: 0x8, addend: 0x0, symName: _glad_glObjectPtrLabel, symObjAddr: 0x25250, symBinAddr: 0x100020A00, symSize: 0x0 }
  - { offsetInCU: 0x3FDC, offset: 0x2E9C6, size: 0x8, addend: 0x0, symName: _glad_glPatchParameterfv, symObjAddr: 0x25258, symBinAddr: 0x100020A08, symSize: 0x0 }
  - { offsetInCU: 0x4011, offset: 0x2E9FB, size: 0x8, addend: 0x0, symName: _glad_glPatchParameteri, symObjAddr: 0x25260, symBinAddr: 0x100020A10, symSize: 0x0 }
  - { offsetInCU: 0x4046, offset: 0x2EA30, size: 0x8, addend: 0x0, symName: _glad_glPauseTransformFeedback, symObjAddr: 0x25268, symBinAddr: 0x100020A18, symSize: 0x0 }
  - { offsetInCU: 0x4069, offset: 0x2EA53, size: 0x8, addend: 0x0, symName: _glad_glPixelStoref, symObjAddr: 0x25270, symBinAddr: 0x100020A20, symSize: 0x0 }
  - { offsetInCU: 0x409E, offset: 0x2EA88, size: 0x8, addend: 0x0, symName: _glad_glPixelStorei, symObjAddr: 0x25278, symBinAddr: 0x100020A28, symSize: 0x0 }
  - { offsetInCU: 0x40C1, offset: 0x2EAAB, size: 0x8, addend: 0x0, symName: _glad_glPointParameterf, symObjAddr: 0x25280, symBinAddr: 0x100020A30, symSize: 0x0 }
  - { offsetInCU: 0x40E4, offset: 0x2EACE, size: 0x8, addend: 0x0, symName: _glad_glPointParameterfv, symObjAddr: 0x25288, symBinAddr: 0x100020A38, symSize: 0x0 }
  - { offsetInCU: 0x4107, offset: 0x2EAF1, size: 0x8, addend: 0x0, symName: _glad_glPointParameteri, symObjAddr: 0x25290, symBinAddr: 0x100020A40, symSize: 0x0 }
  - { offsetInCU: 0x412A, offset: 0x2EB14, size: 0x8, addend: 0x0, symName: _glad_glPointParameteriv, symObjAddr: 0x25298, symBinAddr: 0x100020A48, symSize: 0x0 }
  - { offsetInCU: 0x415F, offset: 0x2EB49, size: 0x8, addend: 0x0, symName: _glad_glPointSize, symObjAddr: 0x252A0, symBinAddr: 0x100020A50, symSize: 0x0 }
  - { offsetInCU: 0x4182, offset: 0x2EB6C, size: 0x8, addend: 0x0, symName: _glad_glPolygonMode, symObjAddr: 0x252A8, symBinAddr: 0x100020A58, symSize: 0x0 }
  - { offsetInCU: 0x41A5, offset: 0x2EB8F, size: 0x8, addend: 0x0, symName: _glad_glPolygonOffset, symObjAddr: 0x252B0, symBinAddr: 0x100020A60, symSize: 0x0 }
  - { offsetInCU: 0x41C8, offset: 0x2EBB2, size: 0x8, addend: 0x0, symName: _glad_glPopDebugGroup, symObjAddr: 0x252B8, symBinAddr: 0x100020A68, symSize: 0x0 }
  - { offsetInCU: 0x41EB, offset: 0x2EBD5, size: 0x8, addend: 0x0, symName: _glad_glPrimitiveRestartIndex, symObjAddr: 0x252C0, symBinAddr: 0x100020A70, symSize: 0x0 }
  - { offsetInCU: 0x420E, offset: 0x2EBF8, size: 0x8, addend: 0x0, symName: _glad_glProgramBinary, symObjAddr: 0x252C8, symBinAddr: 0x100020A78, symSize: 0x0 }
  - { offsetInCU: 0x424D, offset: 0x2EC37, size: 0x8, addend: 0x0, symName: _glad_glProgramParameteri, symObjAddr: 0x252D0, symBinAddr: 0x100020A80, symSize: 0x0 }
  - { offsetInCU: 0x4287, offset: 0x2EC71, size: 0x8, addend: 0x0, symName: _glad_glProgramUniform1d, symObjAddr: 0x252D8, symBinAddr: 0x100020A88, symSize: 0x0 }
  - { offsetInCU: 0x42C1, offset: 0x2ECAB, size: 0x8, addend: 0x0, symName: _glad_glProgramUniform1dv, symObjAddr: 0x252E0, symBinAddr: 0x100020A90, symSize: 0x0 }
  - { offsetInCU: 0x4300, offset: 0x2ECEA, size: 0x8, addend: 0x0, symName: _glad_glProgramUniform1f, symObjAddr: 0x252E8, symBinAddr: 0x100020A98, symSize: 0x0 }
  - { offsetInCU: 0x433A, offset: 0x2ED24, size: 0x8, addend: 0x0, symName: _glad_glProgramUniform1fv, symObjAddr: 0x252F0, symBinAddr: 0x100020AA0, symSize: 0x0 }
  - { offsetInCU: 0x4379, offset: 0x2ED63, size: 0x8, addend: 0x0, symName: _glad_glProgramUniform1i, symObjAddr: 0x252F8, symBinAddr: 0x100020AA8, symSize: 0x0 }
  - { offsetInCU: 0x43B3, offset: 0x2ED9D, size: 0x8, addend: 0x0, symName: _glad_glProgramUniform1iv, symObjAddr: 0x25300, symBinAddr: 0x100020AB0, symSize: 0x0 }
  - { offsetInCU: 0x43F2, offset: 0x2EDDC, size: 0x8, addend: 0x0, symName: _glad_glProgramUniform1ui, symObjAddr: 0x25308, symBinAddr: 0x100020AB8, symSize: 0x0 }
  - { offsetInCU: 0x442C, offset: 0x2EE16, size: 0x8, addend: 0x0, symName: _glad_glProgramUniform1uiv, symObjAddr: 0x25310, symBinAddr: 0x100020AC0, symSize: 0x0 }
  - { offsetInCU: 0x446B, offset: 0x2EE55, size: 0x8, addend: 0x0, symName: _glad_glProgramUniform2d, symObjAddr: 0x25318, symBinAddr: 0x100020AC8, symSize: 0x0 }
  - { offsetInCU: 0x44AA, offset: 0x2EE94, size: 0x8, addend: 0x0, symName: _glad_glProgramUniform2dv, symObjAddr: 0x25320, symBinAddr: 0x100020AD0, symSize: 0x0 }
  - { offsetInCU: 0x44CD, offset: 0x2EEB7, size: 0x8, addend: 0x0, symName: _glad_glProgramUniform2f, symObjAddr: 0x25328, symBinAddr: 0x100020AD8, symSize: 0x0 }
  - { offsetInCU: 0x450C, offset: 0x2EEF6, size: 0x8, addend: 0x0, symName: _glad_glProgramUniform2fv, symObjAddr: 0x25330, symBinAddr: 0x100020AE0, symSize: 0x0 }
  - { offsetInCU: 0x452F, offset: 0x2EF19, size: 0x8, addend: 0x0, symName: _glad_glProgramUniform2i, symObjAddr: 0x25338, symBinAddr: 0x100020AE8, symSize: 0x0 }
  - { offsetInCU: 0x456E, offset: 0x2EF58, size: 0x8, addend: 0x0, symName: _glad_glProgramUniform2iv, symObjAddr: 0x25340, symBinAddr: 0x100020AF0, symSize: 0x0 }
  - { offsetInCU: 0x4591, offset: 0x2EF7B, size: 0x8, addend: 0x0, symName: _glad_glProgramUniform2ui, symObjAddr: 0x25348, symBinAddr: 0x100020AF8, symSize: 0x0 }
  - { offsetInCU: 0x45D0, offset: 0x2EFBA, size: 0x8, addend: 0x0, symName: _glad_glProgramUniform2uiv, symObjAddr: 0x25350, symBinAddr: 0x100020B00, symSize: 0x0 }
  - { offsetInCU: 0x45F3, offset: 0x2EFDD, size: 0x8, addend: 0x0, symName: _glad_glProgramUniform3d, symObjAddr: 0x25358, symBinAddr: 0x100020B08, symSize: 0x0 }
  - { offsetInCU: 0x4637, offset: 0x2F021, size: 0x8, addend: 0x0, symName: _glad_glProgramUniform3dv, symObjAddr: 0x25360, symBinAddr: 0x100020B10, symSize: 0x0 }
  - { offsetInCU: 0x465A, offset: 0x2F044, size: 0x8, addend: 0x0, symName: _glad_glProgramUniform3f, symObjAddr: 0x25368, symBinAddr: 0x100020B18, symSize: 0x0 }
  - { offsetInCU: 0x469E, offset: 0x2F088, size: 0x8, addend: 0x0, symName: _glad_glProgramUniform3fv, symObjAddr: 0x25370, symBinAddr: 0x100020B20, symSize: 0x0 }
  - { offsetInCU: 0x46C1, offset: 0x2F0AB, size: 0x8, addend: 0x0, symName: _glad_glProgramUniform3i, symObjAddr: 0x25378, symBinAddr: 0x100020B28, symSize: 0x0 }
  - { offsetInCU: 0x4705, offset: 0x2F0EF, size: 0x8, addend: 0x0, symName: _glad_glProgramUniform3iv, symObjAddr: 0x25380, symBinAddr: 0x100020B30, symSize: 0x0 }
  - { offsetInCU: 0x4728, offset: 0x2F112, size: 0x8, addend: 0x0, symName: _glad_glProgramUniform3ui, symObjAddr: 0x25388, symBinAddr: 0x100020B38, symSize: 0x0 }
  - { offsetInCU: 0x476C, offset: 0x2F156, size: 0x8, addend: 0x0, symName: _glad_glProgramUniform3uiv, symObjAddr: 0x25390, symBinAddr: 0x100020B40, symSize: 0x0 }
  - { offsetInCU: 0x478F, offset: 0x2F179, size: 0x8, addend: 0x0, symName: _glad_glProgramUniform4d, symObjAddr: 0x25398, symBinAddr: 0x100020B48, symSize: 0x0 }
  - { offsetInCU: 0x47D8, offset: 0x2F1C2, size: 0x8, addend: 0x0, symName: _glad_glProgramUniform4dv, symObjAddr: 0x253A0, symBinAddr: 0x100020B50, symSize: 0x0 }
  - { offsetInCU: 0x47FB, offset: 0x2F1E5, size: 0x8, addend: 0x0, symName: _glad_glProgramUniform4f, symObjAddr: 0x253A8, symBinAddr: 0x100020B58, symSize: 0x0 }
  - { offsetInCU: 0x4844, offset: 0x2F22E, size: 0x8, addend: 0x0, symName: _glad_glProgramUniform4fv, symObjAddr: 0x253B0, symBinAddr: 0x100020B60, symSize: 0x0 }
  - { offsetInCU: 0x4867, offset: 0x2F251, size: 0x8, addend: 0x0, symName: _glad_glProgramUniform4i, symObjAddr: 0x253B8, symBinAddr: 0x100020B68, symSize: 0x0 }
  - { offsetInCU: 0x48B0, offset: 0x2F29A, size: 0x8, addend: 0x0, symName: _glad_glProgramUniform4iv, symObjAddr: 0x253C0, symBinAddr: 0x100020B70, symSize: 0x0 }
  - { offsetInCU: 0x48D3, offset: 0x2F2BD, size: 0x8, addend: 0x0, symName: _glad_glProgramUniform4ui, symObjAddr: 0x253C8, symBinAddr: 0x100020B78, symSize: 0x0 }
  - { offsetInCU: 0x491C, offset: 0x2F306, size: 0x8, addend: 0x0, symName: _glad_glProgramUniform4uiv, symObjAddr: 0x253D0, symBinAddr: 0x100020B80, symSize: 0x0 }
  - { offsetInCU: 0x493F, offset: 0x2F329, size: 0x8, addend: 0x0, symName: _glad_glProgramUniformMatrix2dv, symObjAddr: 0x253D8, symBinAddr: 0x100020B88, symSize: 0x0 }
  - { offsetInCU: 0x4983, offset: 0x2F36D, size: 0x8, addend: 0x0, symName: _glad_glProgramUniformMatrix2fv, symObjAddr: 0x253E0, symBinAddr: 0x100020B90, symSize: 0x0 }
  - { offsetInCU: 0x49C7, offset: 0x2F3B1, size: 0x8, addend: 0x0, symName: _glad_glProgramUniformMatrix2x3dv, symObjAddr: 0x253E8, symBinAddr: 0x100020B98, symSize: 0x0 }
  - { offsetInCU: 0x49EA, offset: 0x2F3D4, size: 0x8, addend: 0x0, symName: _glad_glProgramUniformMatrix2x3fv, symObjAddr: 0x253F0, symBinAddr: 0x100020BA0, symSize: 0x0 }
  - { offsetInCU: 0x4A0D, offset: 0x2F3F7, size: 0x8, addend: 0x0, symName: _glad_glProgramUniformMatrix2x4dv, symObjAddr: 0x253F8, symBinAddr: 0x100020BA8, symSize: 0x0 }
  - { offsetInCU: 0x4A30, offset: 0x2F41A, size: 0x8, addend: 0x0, symName: _glad_glProgramUniformMatrix2x4fv, symObjAddr: 0x25400, symBinAddr: 0x100020BB0, symSize: 0x0 }
  - { offsetInCU: 0x4A53, offset: 0x2F43D, size: 0x8, addend: 0x0, symName: _glad_glProgramUniformMatrix3dv, symObjAddr: 0x25408, symBinAddr: 0x100020BB8, symSize: 0x0 }
  - { offsetInCU: 0x4A76, offset: 0x2F460, size: 0x8, addend: 0x0, symName: _glad_glProgramUniformMatrix3fv, symObjAddr: 0x25410, symBinAddr: 0x100020BC0, symSize: 0x0 }
  - { offsetInCU: 0x4A99, offset: 0x2F483, size: 0x8, addend: 0x0, symName: _glad_glProgramUniformMatrix3x2dv, symObjAddr: 0x25418, symBinAddr: 0x100020BC8, symSize: 0x0 }
  - { offsetInCU: 0x4ABC, offset: 0x2F4A6, size: 0x8, addend: 0x0, symName: _glad_glProgramUniformMatrix3x2fv, symObjAddr: 0x25420, symBinAddr: 0x100020BD0, symSize: 0x0 }
  - { offsetInCU: 0x4ADF, offset: 0x2F4C9, size: 0x8, addend: 0x0, symName: _glad_glProgramUniformMatrix3x4dv, symObjAddr: 0x25428, symBinAddr: 0x100020BD8, symSize: 0x0 }
  - { offsetInCU: 0x4B02, offset: 0x2F4EC, size: 0x8, addend: 0x0, symName: _glad_glProgramUniformMatrix3x4fv, symObjAddr: 0x25430, symBinAddr: 0x100020BE0, symSize: 0x0 }
  - { offsetInCU: 0x4B25, offset: 0x2F50F, size: 0x8, addend: 0x0, symName: _glad_glProgramUniformMatrix4dv, symObjAddr: 0x25438, symBinAddr: 0x100020BE8, symSize: 0x0 }
  - { offsetInCU: 0x4B48, offset: 0x2F532, size: 0x8, addend: 0x0, symName: _glad_glProgramUniformMatrix4fv, symObjAddr: 0x25440, symBinAddr: 0x100020BF0, symSize: 0x0 }
  - { offsetInCU: 0x4B6B, offset: 0x2F555, size: 0x8, addend: 0x0, symName: _glad_glProgramUniformMatrix4x2dv, symObjAddr: 0x25448, symBinAddr: 0x100020BF8, symSize: 0x0 }
  - { offsetInCU: 0x4B8E, offset: 0x2F578, size: 0x8, addend: 0x0, symName: _glad_glProgramUniformMatrix4x2fv, symObjAddr: 0x25450, symBinAddr: 0x100020C00, symSize: 0x0 }
  - { offsetInCU: 0x4BB1, offset: 0x2F59B, size: 0x8, addend: 0x0, symName: _glad_glProgramUniformMatrix4x3dv, symObjAddr: 0x25458, symBinAddr: 0x100020C08, symSize: 0x0 }
  - { offsetInCU: 0x4BD4, offset: 0x2F5BE, size: 0x8, addend: 0x0, symName: _glad_glProgramUniformMatrix4x3fv, symObjAddr: 0x25460, symBinAddr: 0x100020C10, symSize: 0x0 }
  - { offsetInCU: 0x4BF7, offset: 0x2F5E1, size: 0x8, addend: 0x0, symName: _glad_glProvokingVertex, symObjAddr: 0x25468, symBinAddr: 0x100020C18, symSize: 0x0 }
  - { offsetInCU: 0x4C1A, offset: 0x2F604, size: 0x8, addend: 0x0, symName: _glad_glPushDebugGroup, symObjAddr: 0x25470, symBinAddr: 0x100020C20, symSize: 0x0 }
  - { offsetInCU: 0x4C3D, offset: 0x2F627, size: 0x8, addend: 0x0, symName: _glad_glQueryCounter, symObjAddr: 0x25478, symBinAddr: 0x100020C28, symSize: 0x0 }
  - { offsetInCU: 0x4C60, offset: 0x2F64A, size: 0x8, addend: 0x0, symName: _glad_glReadBuffer, symObjAddr: 0x25480, symBinAddr: 0x100020C30, symSize: 0x0 }
  - { offsetInCU: 0x4C83, offset: 0x2F66D, size: 0x8, addend: 0x0, symName: _glad_glReadPixels, symObjAddr: 0x25488, symBinAddr: 0x100020C38, symSize: 0x0 }
  - { offsetInCU: 0x4CD1, offset: 0x2F6BB, size: 0x8, addend: 0x0, symName: _glad_glReleaseShaderCompiler, symObjAddr: 0x25490, symBinAddr: 0x100020C40, symSize: 0x0 }
  - { offsetInCU: 0x4CF4, offset: 0x2F6DE, size: 0x8, addend: 0x0, symName: _glad_glRenderbufferStorage, symObjAddr: 0x25498, symBinAddr: 0x100020C48, symSize: 0x0 }
  - { offsetInCU: 0x4D33, offset: 0x2F71D, size: 0x8, addend: 0x0, symName: _glad_glRenderbufferStorageMultisample, symObjAddr: 0x254A0, symBinAddr: 0x100020C50, symSize: 0x0 }
  - { offsetInCU: 0x4D77, offset: 0x2F761, size: 0x8, addend: 0x0, symName: _glad_glResumeTransformFeedback, symObjAddr: 0x254A8, symBinAddr: 0x100020C58, symSize: 0x0 }
  - { offsetInCU: 0x4D9A, offset: 0x2F784, size: 0x8, addend: 0x0, symName: _glad_glSampleCoverage, symObjAddr: 0x254B0, symBinAddr: 0x100020C60, symSize: 0x0 }
  - { offsetInCU: 0x4DCF, offset: 0x2F7B9, size: 0x8, addend: 0x0, symName: _glad_glSampleMaski, symObjAddr: 0x254B8, symBinAddr: 0x100020C68, symSize: 0x0 }
  - { offsetInCU: 0x4E04, offset: 0x2F7EE, size: 0x8, addend: 0x0, symName: _glad_glSamplerParameterIiv, symObjAddr: 0x254C0, symBinAddr: 0x100020C70, symSize: 0x0 }
  - { offsetInCU: 0x4E3E, offset: 0x2F828, size: 0x8, addend: 0x0, symName: _glad_glSamplerParameterIuiv, symObjAddr: 0x254C8, symBinAddr: 0x100020C78, symSize: 0x0 }
  - { offsetInCU: 0x4E78, offset: 0x2F862, size: 0x8, addend: 0x0, symName: _glad_glSamplerParameterf, symObjAddr: 0x254D0, symBinAddr: 0x100020C80, symSize: 0x0 }
  - { offsetInCU: 0x4EB2, offset: 0x2F89C, size: 0x8, addend: 0x0, symName: _glad_glSamplerParameterfv, symObjAddr: 0x254D8, symBinAddr: 0x100020C88, symSize: 0x0 }
  - { offsetInCU: 0x4EEC, offset: 0x2F8D6, size: 0x8, addend: 0x0, symName: _glad_glSamplerParameteri, symObjAddr: 0x254E0, symBinAddr: 0x100020C90, symSize: 0x0 }
  - { offsetInCU: 0x4F0F, offset: 0x2F8F9, size: 0x8, addend: 0x0, symName: _glad_glSamplerParameteriv, symObjAddr: 0x254E8, symBinAddr: 0x100020C98, symSize: 0x0 }
  - { offsetInCU: 0x4F32, offset: 0x2F91C, size: 0x8, addend: 0x0, symName: _glad_glScissor, symObjAddr: 0x254F0, symBinAddr: 0x100020CA0, symSize: 0x0 }
  - { offsetInCU: 0x4F71, offset: 0x2F95B, size: 0x8, addend: 0x0, symName: _glad_glScissorArrayv, symObjAddr: 0x254F8, symBinAddr: 0x100020CA8, symSize: 0x0 }
  - { offsetInCU: 0x4FAB, offset: 0x2F995, size: 0x8, addend: 0x0, symName: _glad_glScissorIndexed, symObjAddr: 0x25500, symBinAddr: 0x100020CB0, symSize: 0x0 }
  - { offsetInCU: 0x4FEF, offset: 0x2F9D9, size: 0x8, addend: 0x0, symName: _glad_glScissorIndexedv, symObjAddr: 0x25508, symBinAddr: 0x100020CB8, symSize: 0x0 }
  - { offsetInCU: 0x5024, offset: 0x2FA0E, size: 0x8, addend: 0x0, symName: _glad_glSecondaryColorP3ui, symObjAddr: 0x25510, symBinAddr: 0x100020CC0, symSize: 0x0 }
  - { offsetInCU: 0x5047, offset: 0x2FA31, size: 0x8, addend: 0x0, symName: _glad_glSecondaryColorP3uiv, symObjAddr: 0x25518, symBinAddr: 0x100020CC8, symSize: 0x0 }
  - { offsetInCU: 0x506A, offset: 0x2FA54, size: 0x8, addend: 0x0, symName: _glad_glShaderBinary, symObjAddr: 0x25520, symBinAddr: 0x100020CD0, symSize: 0x0 }
  - { offsetInCU: 0x50AE, offset: 0x2FA98, size: 0x8, addend: 0x0, symName: _glad_glShaderSource, symObjAddr: 0x25528, symBinAddr: 0x100020CD8, symSize: 0x0 }
  - { offsetInCU: 0x50ED, offset: 0x2FAD7, size: 0x8, addend: 0x0, symName: _glad_glShaderStorageBlockBinding, symObjAddr: 0x25530, symBinAddr: 0x100020CE0, symSize: 0x0 }
  - { offsetInCU: 0x5110, offset: 0x2FAFA, size: 0x8, addend: 0x0, symName: _glad_glStencilFunc, symObjAddr: 0x25538, symBinAddr: 0x100020CE8, symSize: 0x0 }
  - { offsetInCU: 0x514A, offset: 0x2FB34, size: 0x8, addend: 0x0, symName: _glad_glStencilFuncSeparate, symObjAddr: 0x25540, symBinAddr: 0x100020CF0, symSize: 0x0 }
  - { offsetInCU: 0x5189, offset: 0x2FB73, size: 0x8, addend: 0x0, symName: _glad_glStencilMask, symObjAddr: 0x25548, symBinAddr: 0x100020CF8, symSize: 0x0 }
  - { offsetInCU: 0x51AC, offset: 0x2FB96, size: 0x8, addend: 0x0, symName: _glad_glStencilMaskSeparate, symObjAddr: 0x25550, symBinAddr: 0x100020D00, symSize: 0x0 }
  - { offsetInCU: 0x51CF, offset: 0x2FBB9, size: 0x8, addend: 0x0, symName: _glad_glStencilOp, symObjAddr: 0x25558, symBinAddr: 0x100020D08, symSize: 0x0 }
  - { offsetInCU: 0x5209, offset: 0x2FBF3, size: 0x8, addend: 0x0, symName: _glad_glStencilOpSeparate, symObjAddr: 0x25560, symBinAddr: 0x100020D10, symSize: 0x0 }
  - { offsetInCU: 0x522C, offset: 0x2FC16, size: 0x8, addend: 0x0, symName: _glad_glTexBuffer, symObjAddr: 0x25568, symBinAddr: 0x100020D18, symSize: 0x0 }
  - { offsetInCU: 0x524F, offset: 0x2FC39, size: 0x8, addend: 0x0, symName: _glad_glTexBufferRange, symObjAddr: 0x25570, symBinAddr: 0x100020D20, symSize: 0x0 }
  - { offsetInCU: 0x5293, offset: 0x2FC7D, size: 0x8, addend: 0x0, symName: _glad_glTexCoordP1ui, symObjAddr: 0x25578, symBinAddr: 0x100020D28, symSize: 0x0 }
  - { offsetInCU: 0x52B6, offset: 0x2FCA0, size: 0x8, addend: 0x0, symName: _glad_glTexCoordP1uiv, symObjAddr: 0x25580, symBinAddr: 0x100020D30, symSize: 0x0 }
  - { offsetInCU: 0x52D9, offset: 0x2FCC3, size: 0x8, addend: 0x0, symName: _glad_glTexCoordP2ui, symObjAddr: 0x25588, symBinAddr: 0x100020D38, symSize: 0x0 }
  - { offsetInCU: 0x52FC, offset: 0x2FCE6, size: 0x8, addend: 0x0, symName: _glad_glTexCoordP2uiv, symObjAddr: 0x25590, symBinAddr: 0x100020D40, symSize: 0x0 }
  - { offsetInCU: 0x531F, offset: 0x2FD09, size: 0x8, addend: 0x0, symName: _glad_glTexCoordP3ui, symObjAddr: 0x25598, symBinAddr: 0x100020D48, symSize: 0x0 }
  - { offsetInCU: 0x5342, offset: 0x2FD2C, size: 0x8, addend: 0x0, symName: _glad_glTexCoordP3uiv, symObjAddr: 0x255A0, symBinAddr: 0x100020D50, symSize: 0x0 }
  - { offsetInCU: 0x5365, offset: 0x2FD4F, size: 0x8, addend: 0x0, symName: _glad_glTexCoordP4ui, symObjAddr: 0x255A8, symBinAddr: 0x100020D58, symSize: 0x0 }
  - { offsetInCU: 0x5388, offset: 0x2FD72, size: 0x8, addend: 0x0, symName: _glad_glTexCoordP4uiv, symObjAddr: 0x255B0, symBinAddr: 0x100020D60, symSize: 0x0 }
  - { offsetInCU: 0x53AB, offset: 0x2FD95, size: 0x8, addend: 0x0, symName: _glad_glTexImage1D, symObjAddr: 0x255B8, symBinAddr: 0x100020D68, symSize: 0x0 }
  - { offsetInCU: 0x53FE, offset: 0x2FDE8, size: 0x8, addend: 0x0, symName: _glad_glTexImage2D, symObjAddr: 0x255C0, symBinAddr: 0x100020D70, symSize: 0x0 }
  - { offsetInCU: 0x5456, offset: 0x2FE40, size: 0x8, addend: 0x0, symName: _glad_glTexImage2DMultisample, symObjAddr: 0x255C8, symBinAddr: 0x100020D78, symSize: 0x0 }
  - { offsetInCU: 0x549F, offset: 0x2FE89, size: 0x8, addend: 0x0, symName: _glad_glTexImage3D, symObjAddr: 0x255D0, symBinAddr: 0x100020D80, symSize: 0x0 }
  - { offsetInCU: 0x54FC, offset: 0x2FEE6, size: 0x8, addend: 0x0, symName: _glad_glTexImage3DMultisample, symObjAddr: 0x255D8, symBinAddr: 0x100020D88, symSize: 0x0 }
  - { offsetInCU: 0x554A, offset: 0x2FF34, size: 0x8, addend: 0x0, symName: _glad_glTexParameterIiv, symObjAddr: 0x255E0, symBinAddr: 0x100020D90, symSize: 0x0 }
  - { offsetInCU: 0x5584, offset: 0x2FF6E, size: 0x8, addend: 0x0, symName: _glad_glTexParameterIuiv, symObjAddr: 0x255E8, symBinAddr: 0x100020D98, symSize: 0x0 }
  - { offsetInCU: 0x55A7, offset: 0x2FF91, size: 0x8, addend: 0x0, symName: _glad_glTexParameterf, symObjAddr: 0x255F0, symBinAddr: 0x100020DA0, symSize: 0x0 }
  - { offsetInCU: 0x55E1, offset: 0x2FFCB, size: 0x8, addend: 0x0, symName: _glad_glTexParameterfv, symObjAddr: 0x255F8, symBinAddr: 0x100020DA8, symSize: 0x0 }
  - { offsetInCU: 0x561B, offset: 0x30005, size: 0x8, addend: 0x0, symName: _glad_glTexParameteri, symObjAddr: 0x25600, symBinAddr: 0x100020DB0, symSize: 0x0 }
  - { offsetInCU: 0x563E, offset: 0x30028, size: 0x8, addend: 0x0, symName: _glad_glTexParameteriv, symObjAddr: 0x25608, symBinAddr: 0x100020DB8, symSize: 0x0 }
  - { offsetInCU: 0x5661, offset: 0x3004B, size: 0x8, addend: 0x0, symName: _glad_glTexStorage1D, symObjAddr: 0x25610, symBinAddr: 0x100020DC0, symSize: 0x0 }
  - { offsetInCU: 0x56A0, offset: 0x3008A, size: 0x8, addend: 0x0, symName: _glad_glTexStorage2D, symObjAddr: 0x25618, symBinAddr: 0x100020DC8, symSize: 0x0 }
  - { offsetInCU: 0x56C3, offset: 0x300AD, size: 0x8, addend: 0x0, symName: _glad_glTexStorage2DMultisample, symObjAddr: 0x25620, symBinAddr: 0x100020DD0, symSize: 0x0 }
  - { offsetInCU: 0x56E6, offset: 0x300D0, size: 0x8, addend: 0x0, symName: _glad_glTexStorage3D, symObjAddr: 0x25628, symBinAddr: 0x100020DD8, symSize: 0x0 }
  - { offsetInCU: 0x572F, offset: 0x30119, size: 0x8, addend: 0x0, symName: _glad_glTexStorage3DMultisample, symObjAddr: 0x25630, symBinAddr: 0x100020DE0, symSize: 0x0 }
  - { offsetInCU: 0x5752, offset: 0x3013C, size: 0x8, addend: 0x0, symName: _glad_glTexSubImage1D, symObjAddr: 0x25638, symBinAddr: 0x100020DE8, symSize: 0x0 }
  - { offsetInCU: 0x57A0, offset: 0x3018A, size: 0x8, addend: 0x0, symName: _glad_glTexSubImage2D, symObjAddr: 0x25640, symBinAddr: 0x100020DF0, symSize: 0x0 }
  - { offsetInCU: 0x57F8, offset: 0x301E2, size: 0x8, addend: 0x0, symName: _glad_glTexSubImage3D, symObjAddr: 0x25648, symBinAddr: 0x100020DF8, symSize: 0x0 }
  - { offsetInCU: 0x585A, offset: 0x30244, size: 0x8, addend: 0x0, symName: _glad_glTextureView, symObjAddr: 0x25650, symBinAddr: 0x100020E00, symSize: 0x0 }
  - { offsetInCU: 0x58AD, offset: 0x30297, size: 0x8, addend: 0x0, symName: _glad_glTransformFeedbackVaryings, symObjAddr: 0x25658, symBinAddr: 0x100020E08, symSize: 0x0 }
  - { offsetInCU: 0x58EC, offset: 0x302D6, size: 0x8, addend: 0x0, symName: _glad_glUniform1d, symObjAddr: 0x25660, symBinAddr: 0x100020E10, symSize: 0x0 }
  - { offsetInCU: 0x5921, offset: 0x3030B, size: 0x8, addend: 0x0, symName: _glad_glUniform1dv, symObjAddr: 0x25668, symBinAddr: 0x100020E18, symSize: 0x0 }
  - { offsetInCU: 0x595B, offset: 0x30345, size: 0x8, addend: 0x0, symName: _glad_glUniform1f, symObjAddr: 0x25670, symBinAddr: 0x100020E20, symSize: 0x0 }
  - { offsetInCU: 0x5990, offset: 0x3037A, size: 0x8, addend: 0x0, symName: _glad_glUniform1fv, symObjAddr: 0x25678, symBinAddr: 0x100020E28, symSize: 0x0 }
  - { offsetInCU: 0x59CA, offset: 0x303B4, size: 0x8, addend: 0x0, symName: _glad_glUniform1i, symObjAddr: 0x25680, symBinAddr: 0x100020E30, symSize: 0x0 }
  - { offsetInCU: 0x59FF, offset: 0x303E9, size: 0x8, addend: 0x0, symName: _glad_glUniform1iv, symObjAddr: 0x25688, symBinAddr: 0x100020E38, symSize: 0x0 }
  - { offsetInCU: 0x5A39, offset: 0x30423, size: 0x8, addend: 0x0, symName: _glad_glUniform1ui, symObjAddr: 0x25690, symBinAddr: 0x100020E40, symSize: 0x0 }
  - { offsetInCU: 0x5A6E, offset: 0x30458, size: 0x8, addend: 0x0, symName: _glad_glUniform1uiv, symObjAddr: 0x25698, symBinAddr: 0x100020E48, symSize: 0x0 }
  - { offsetInCU: 0x5AA8, offset: 0x30492, size: 0x8, addend: 0x0, symName: _glad_glUniform2d, symObjAddr: 0x256A0, symBinAddr: 0x100020E50, symSize: 0x0 }
  - { offsetInCU: 0x5AE2, offset: 0x304CC, size: 0x8, addend: 0x0, symName: _glad_glUniform2dv, symObjAddr: 0x256A8, symBinAddr: 0x100020E58, symSize: 0x0 }
  - { offsetInCU: 0x5B05, offset: 0x304EF, size: 0x8, addend: 0x0, symName: _glad_glUniform2f, symObjAddr: 0x256B0, symBinAddr: 0x100020E60, symSize: 0x0 }
  - { offsetInCU: 0x5B3F, offset: 0x30529, size: 0x8, addend: 0x0, symName: _glad_glUniform2fv, symObjAddr: 0x256B8, symBinAddr: 0x100020E68, symSize: 0x0 }
  - { offsetInCU: 0x5B62, offset: 0x3054C, size: 0x8, addend: 0x0, symName: _glad_glUniform2i, symObjAddr: 0x256C0, symBinAddr: 0x100020E70, symSize: 0x0 }
  - { offsetInCU: 0x5B9C, offset: 0x30586, size: 0x8, addend: 0x0, symName: _glad_glUniform2iv, symObjAddr: 0x256C8, symBinAddr: 0x100020E78, symSize: 0x0 }
  - { offsetInCU: 0x5BBF, offset: 0x305A9, size: 0x8, addend: 0x0, symName: _glad_glUniform2ui, symObjAddr: 0x256D0, symBinAddr: 0x100020E80, symSize: 0x0 }
  - { offsetInCU: 0x5BF9, offset: 0x305E3, size: 0x8, addend: 0x0, symName: _glad_glUniform2uiv, symObjAddr: 0x256D8, symBinAddr: 0x100020E88, symSize: 0x0 }
  - { offsetInCU: 0x5C1C, offset: 0x30606, size: 0x8, addend: 0x0, symName: _glad_glUniform3d, symObjAddr: 0x256E0, symBinAddr: 0x100020E90, symSize: 0x0 }
  - { offsetInCU: 0x5C5B, offset: 0x30645, size: 0x8, addend: 0x0, symName: _glad_glUniform3dv, symObjAddr: 0x256E8, symBinAddr: 0x100020E98, symSize: 0x0 }
  - { offsetInCU: 0x5C7E, offset: 0x30668, size: 0x8, addend: 0x0, symName: _glad_glUniform3f, symObjAddr: 0x256F0, symBinAddr: 0x100020EA0, symSize: 0x0 }
  - { offsetInCU: 0x5CBD, offset: 0x306A7, size: 0x8, addend: 0x0, symName: _glad_glUniform3fv, symObjAddr: 0x256F8, symBinAddr: 0x100020EA8, symSize: 0x0 }
  - { offsetInCU: 0x5CE0, offset: 0x306CA, size: 0x8, addend: 0x0, symName: _glad_glUniform3i, symObjAddr: 0x25700, symBinAddr: 0x100020EB0, symSize: 0x0 }
  - { offsetInCU: 0x5D1F, offset: 0x30709, size: 0x8, addend: 0x0, symName: _glad_glUniform3iv, symObjAddr: 0x25708, symBinAddr: 0x100020EB8, symSize: 0x0 }
  - { offsetInCU: 0x5D42, offset: 0x3072C, size: 0x8, addend: 0x0, symName: _glad_glUniform3ui, symObjAddr: 0x25710, symBinAddr: 0x100020EC0, symSize: 0x0 }
  - { offsetInCU: 0x5D81, offset: 0x3076B, size: 0x8, addend: 0x0, symName: _glad_glUniform3uiv, symObjAddr: 0x25718, symBinAddr: 0x100020EC8, symSize: 0x0 }
  - { offsetInCU: 0x5DA4, offset: 0x3078E, size: 0x8, addend: 0x0, symName: _glad_glUniform4d, symObjAddr: 0x25720, symBinAddr: 0x100020ED0, symSize: 0x0 }
  - { offsetInCU: 0x5DE8, offset: 0x307D2, size: 0x8, addend: 0x0, symName: _glad_glUniform4dv, symObjAddr: 0x25728, symBinAddr: 0x100020ED8, symSize: 0x0 }
  - { offsetInCU: 0x5E0B, offset: 0x307F5, size: 0x8, addend: 0x0, symName: _glad_glUniform4f, symObjAddr: 0x25730, symBinAddr: 0x100020EE0, symSize: 0x0 }
  - { offsetInCU: 0x5E4F, offset: 0x30839, size: 0x8, addend: 0x0, symName: _glad_glUniform4fv, symObjAddr: 0x25738, symBinAddr: 0x100020EE8, symSize: 0x0 }
  - { offsetInCU: 0x5E72, offset: 0x3085C, size: 0x8, addend: 0x0, symName: _glad_glUniform4i, symObjAddr: 0x25740, symBinAddr: 0x100020EF0, symSize: 0x0 }
  - { offsetInCU: 0x5EB6, offset: 0x308A0, size: 0x8, addend: 0x0, symName: _glad_glUniform4iv, symObjAddr: 0x25748, symBinAddr: 0x100020EF8, symSize: 0x0 }
  - { offsetInCU: 0x5ED9, offset: 0x308C3, size: 0x8, addend: 0x0, symName: _glad_glUniform4ui, symObjAddr: 0x25750, symBinAddr: 0x100020F00, symSize: 0x0 }
  - { offsetInCU: 0x5F1D, offset: 0x30907, size: 0x8, addend: 0x0, symName: _glad_glUniform4uiv, symObjAddr: 0x25758, symBinAddr: 0x100020F08, symSize: 0x0 }
  - { offsetInCU: 0x5F40, offset: 0x3092A, size: 0x8, addend: 0x0, symName: _glad_glUniformBlockBinding, symObjAddr: 0x25760, symBinAddr: 0x100020F10, symSize: 0x0 }
  - { offsetInCU: 0x5F63, offset: 0x3094D, size: 0x8, addend: 0x0, symName: _glad_glUniformMatrix2dv, symObjAddr: 0x25768, symBinAddr: 0x100020F18, symSize: 0x0 }
  - { offsetInCU: 0x5FA2, offset: 0x3098C, size: 0x8, addend: 0x0, symName: _glad_glUniformMatrix2fv, symObjAddr: 0x25770, symBinAddr: 0x100020F20, symSize: 0x0 }
  - { offsetInCU: 0x5FE1, offset: 0x309CB, size: 0x8, addend: 0x0, symName: _glad_glUniformMatrix2x3dv, symObjAddr: 0x25778, symBinAddr: 0x100020F28, symSize: 0x0 }
  - { offsetInCU: 0x6004, offset: 0x309EE, size: 0x8, addend: 0x0, symName: _glad_glUniformMatrix2x3fv, symObjAddr: 0x25780, symBinAddr: 0x100020F30, symSize: 0x0 }
  - { offsetInCU: 0x6027, offset: 0x30A11, size: 0x8, addend: 0x0, symName: _glad_glUniformMatrix2x4dv, symObjAddr: 0x25788, symBinAddr: 0x100020F38, symSize: 0x0 }
  - { offsetInCU: 0x604A, offset: 0x30A34, size: 0x8, addend: 0x0, symName: _glad_glUniformMatrix2x4fv, symObjAddr: 0x25790, symBinAddr: 0x100020F40, symSize: 0x0 }
  - { offsetInCU: 0x606D, offset: 0x30A57, size: 0x8, addend: 0x0, symName: _glad_glUniformMatrix3dv, symObjAddr: 0x25798, symBinAddr: 0x100020F48, symSize: 0x0 }
  - { offsetInCU: 0x6090, offset: 0x30A7A, size: 0x8, addend: 0x0, symName: _glad_glUniformMatrix3fv, symObjAddr: 0x257A0, symBinAddr: 0x100020F50, symSize: 0x0 }
  - { offsetInCU: 0x60B3, offset: 0x30A9D, size: 0x8, addend: 0x0, symName: _glad_glUniformMatrix3x2dv, symObjAddr: 0x257A8, symBinAddr: 0x100020F58, symSize: 0x0 }
  - { offsetInCU: 0x60D6, offset: 0x30AC0, size: 0x8, addend: 0x0, symName: _glad_glUniformMatrix3x2fv, symObjAddr: 0x257B0, symBinAddr: 0x100020F60, symSize: 0x0 }
  - { offsetInCU: 0x60F9, offset: 0x30AE3, size: 0x8, addend: 0x0, symName: _glad_glUniformMatrix3x4dv, symObjAddr: 0x257B8, symBinAddr: 0x100020F68, symSize: 0x0 }
  - { offsetInCU: 0x611C, offset: 0x30B06, size: 0x8, addend: 0x0, symName: _glad_glUniformMatrix3x4fv, symObjAddr: 0x257C0, symBinAddr: 0x100020F70, symSize: 0x0 }
  - { offsetInCU: 0x613F, offset: 0x30B29, size: 0x8, addend: 0x0, symName: _glad_glUniformMatrix4dv, symObjAddr: 0x257C8, symBinAddr: 0x100020F78, symSize: 0x0 }
  - { offsetInCU: 0x6162, offset: 0x30B4C, size: 0x8, addend: 0x0, symName: _glad_glUniformMatrix4fv, symObjAddr: 0x257D0, symBinAddr: 0x100020F80, symSize: 0x0 }
  - { offsetInCU: 0x6185, offset: 0x30B6F, size: 0x8, addend: 0x0, symName: _glad_glUniformMatrix4x2dv, symObjAddr: 0x257D8, symBinAddr: 0x100020F88, symSize: 0x0 }
  - { offsetInCU: 0x61A8, offset: 0x30B92, size: 0x8, addend: 0x0, symName: _glad_glUniformMatrix4x2fv, symObjAddr: 0x257E0, symBinAddr: 0x100020F90, symSize: 0x0 }
  - { offsetInCU: 0x61CB, offset: 0x30BB5, size: 0x8, addend: 0x0, symName: _glad_glUniformMatrix4x3dv, symObjAddr: 0x257E8, symBinAddr: 0x100020F98, symSize: 0x0 }
  - { offsetInCU: 0x61EE, offset: 0x30BD8, size: 0x8, addend: 0x0, symName: _glad_glUniformMatrix4x3fv, symObjAddr: 0x257F0, symBinAddr: 0x100020FA0, symSize: 0x0 }
  - { offsetInCU: 0x6211, offset: 0x30BFB, size: 0x8, addend: 0x0, symName: _glad_glUniformSubroutinesuiv, symObjAddr: 0x257F8, symBinAddr: 0x100020FA8, symSize: 0x0 }
  - { offsetInCU: 0x624B, offset: 0x30C35, size: 0x8, addend: 0x0, symName: _glad_glUnmapBuffer, symObjAddr: 0x25800, symBinAddr: 0x100020FB0, symSize: 0x0 }
  - { offsetInCU: 0x626E, offset: 0x30C58, size: 0x8, addend: 0x0, symName: _glad_glUseProgram, symObjAddr: 0x25808, symBinAddr: 0x100020FB8, symSize: 0x0 }
  - { offsetInCU: 0x6291, offset: 0x30C7B, size: 0x8, addend: 0x0, symName: _glad_glUseProgramStages, symObjAddr: 0x25810, symBinAddr: 0x100020FC0, symSize: 0x0 }
  - { offsetInCU: 0x62CB, offset: 0x30CB5, size: 0x8, addend: 0x0, symName: _glad_glValidateProgram, symObjAddr: 0x25818, symBinAddr: 0x100020FC8, symSize: 0x0 }
  - { offsetInCU: 0x62EE, offset: 0x30CD8, size: 0x8, addend: 0x0, symName: _glad_glValidateProgramPipeline, symObjAddr: 0x25820, symBinAddr: 0x100020FD0, symSize: 0x0 }
  - { offsetInCU: 0x6311, offset: 0x30CFB, size: 0x8, addend: 0x0, symName: _glad_glVertexAttrib1d, symObjAddr: 0x25828, symBinAddr: 0x100020FD8, symSize: 0x0 }
  - { offsetInCU: 0x6346, offset: 0x30D30, size: 0x8, addend: 0x0, symName: _glad_glVertexAttrib1dv, symObjAddr: 0x25830, symBinAddr: 0x100020FE0, symSize: 0x0 }
  - { offsetInCU: 0x637B, offset: 0x30D65, size: 0x8, addend: 0x0, symName: _glad_glVertexAttrib1f, symObjAddr: 0x25838, symBinAddr: 0x100020FE8, symSize: 0x0 }
  - { offsetInCU: 0x63B0, offset: 0x30D9A, size: 0x8, addend: 0x0, symName: _glad_glVertexAttrib1fv, symObjAddr: 0x25840, symBinAddr: 0x100020FF0, symSize: 0x0 }
  - { offsetInCU: 0x63E5, offset: 0x30DCF, size: 0x8, addend: 0x0, symName: _glad_glVertexAttrib1s, symObjAddr: 0x25848, symBinAddr: 0x100020FF8, symSize: 0x0 }
  - { offsetInCU: 0x6437, offset: 0x30E21, size: 0x8, addend: 0x0, symName: _glad_glVertexAttrib1sv, symObjAddr: 0x25850, symBinAddr: 0x100021000, symSize: 0x0 }
  - { offsetInCU: 0x6476, offset: 0x30E60, size: 0x8, addend: 0x0, symName: _glad_glVertexAttrib2d, symObjAddr: 0x25858, symBinAddr: 0x100021008, symSize: 0x0 }
  - { offsetInCU: 0x6499, offset: 0x30E83, size: 0x8, addend: 0x0, symName: _glad_glVertexAttrib2dv, symObjAddr: 0x25860, symBinAddr: 0x100021010, symSize: 0x0 }
  - { offsetInCU: 0x64BC, offset: 0x30EA6, size: 0x8, addend: 0x0, symName: _glad_glVertexAttrib2f, symObjAddr: 0x25868, symBinAddr: 0x100021018, symSize: 0x0 }
  - { offsetInCU: 0x64F6, offset: 0x30EE0, size: 0x8, addend: 0x0, symName: _glad_glVertexAttrib2fv, symObjAddr: 0x25870, symBinAddr: 0x100021020, symSize: 0x0 }
  - { offsetInCU: 0x6519, offset: 0x30F03, size: 0x8, addend: 0x0, symName: _glad_glVertexAttrib2s, symObjAddr: 0x25878, symBinAddr: 0x100021028, symSize: 0x0 }
  - { offsetInCU: 0x6553, offset: 0x30F3D, size: 0x8, addend: 0x0, symName: _glad_glVertexAttrib2sv, symObjAddr: 0x25880, symBinAddr: 0x100021030, symSize: 0x0 }
  - { offsetInCU: 0x6576, offset: 0x30F60, size: 0x8, addend: 0x0, symName: _glad_glVertexAttrib3d, symObjAddr: 0x25888, symBinAddr: 0x100021038, symSize: 0x0 }
  - { offsetInCU: 0x65B5, offset: 0x30F9F, size: 0x8, addend: 0x0, symName: _glad_glVertexAttrib3dv, symObjAddr: 0x25890, symBinAddr: 0x100021040, symSize: 0x0 }
  - { offsetInCU: 0x65D8, offset: 0x30FC2, size: 0x8, addend: 0x0, symName: _glad_glVertexAttrib3f, symObjAddr: 0x25898, symBinAddr: 0x100021048, symSize: 0x0 }
  - { offsetInCU: 0x6617, offset: 0x31001, size: 0x8, addend: 0x0, symName: _glad_glVertexAttrib3fv, symObjAddr: 0x258A0, symBinAddr: 0x100021050, symSize: 0x0 }
  - { offsetInCU: 0x663A, offset: 0x31024, size: 0x8, addend: 0x0, symName: _glad_glVertexAttrib3s, symObjAddr: 0x258A8, symBinAddr: 0x100021058, symSize: 0x0 }
  - { offsetInCU: 0x6679, offset: 0x31063, size: 0x8, addend: 0x0, symName: _glad_glVertexAttrib3sv, symObjAddr: 0x258B0, symBinAddr: 0x100021060, symSize: 0x0 }
  - { offsetInCU: 0x669C, offset: 0x31086, size: 0x8, addend: 0x0, symName: _glad_glVertexAttrib4Nbv, symObjAddr: 0x258B8, symBinAddr: 0x100021068, symSize: 0x0 }
  - { offsetInCU: 0x66F8, offset: 0x310E2, size: 0x8, addend: 0x0, symName: _glad_glVertexAttrib4Niv, symObjAddr: 0x258C0, symBinAddr: 0x100021070, symSize: 0x0 }
  - { offsetInCU: 0x671B, offset: 0x31105, size: 0x8, addend: 0x0, symName: _glad_glVertexAttrib4Nsv, symObjAddr: 0x258C8, symBinAddr: 0x100021078, symSize: 0x0 }
  - { offsetInCU: 0x673E, offset: 0x31128, size: 0x8, addend: 0x0, symName: _glad_glVertexAttrib4Nub, symObjAddr: 0x258D0, symBinAddr: 0x100021080, symSize: 0x0 }
  - { offsetInCU: 0x6782, offset: 0x3116C, size: 0x8, addend: 0x0, symName: _glad_glVertexAttrib4Nubv, symObjAddr: 0x258D8, symBinAddr: 0x100021088, symSize: 0x0 }
  - { offsetInCU: 0x67B7, offset: 0x311A1, size: 0x8, addend: 0x0, symName: _glad_glVertexAttrib4Nuiv, symObjAddr: 0x258E0, symBinAddr: 0x100021090, symSize: 0x0 }
  - { offsetInCU: 0x67EC, offset: 0x311D6, size: 0x8, addend: 0x0, symName: _glad_glVertexAttrib4Nusv, symObjAddr: 0x258E8, symBinAddr: 0x100021098, symSize: 0x0 }
  - { offsetInCU: 0x6848, offset: 0x31232, size: 0x8, addend: 0x0, symName: _glad_glVertexAttrib4bv, symObjAddr: 0x258F0, symBinAddr: 0x1000210A0, symSize: 0x0 }
  - { offsetInCU: 0x686B, offset: 0x31255, size: 0x8, addend: 0x0, symName: _glad_glVertexAttrib4d, symObjAddr: 0x258F8, symBinAddr: 0x1000210A8, symSize: 0x0 }
  - { offsetInCU: 0x68AF, offset: 0x31299, size: 0x8, addend: 0x0, symName: _glad_glVertexAttrib4dv, symObjAddr: 0x25900, symBinAddr: 0x1000210B0, symSize: 0x0 }
  - { offsetInCU: 0x68D2, offset: 0x312BC, size: 0x8, addend: 0x0, symName: _glad_glVertexAttrib4f, symObjAddr: 0x25908, symBinAddr: 0x1000210B8, symSize: 0x0 }
  - { offsetInCU: 0x6916, offset: 0x31300, size: 0x8, addend: 0x0, symName: _glad_glVertexAttrib4fv, symObjAddr: 0x25910, symBinAddr: 0x1000210C0, symSize: 0x0 }
  - { offsetInCU: 0x6939, offset: 0x31323, size: 0x8, addend: 0x0, symName: _glad_glVertexAttrib4iv, symObjAddr: 0x25918, symBinAddr: 0x1000210C8, symSize: 0x0 }
  - { offsetInCU: 0x695C, offset: 0x31346, size: 0x8, addend: 0x0, symName: _glad_glVertexAttrib4s, symObjAddr: 0x25920, symBinAddr: 0x1000210D0, symSize: 0x0 }
  - { offsetInCU: 0x69A0, offset: 0x3138A, size: 0x8, addend: 0x0, symName: _glad_glVertexAttrib4sv, symObjAddr: 0x25928, symBinAddr: 0x1000210D8, symSize: 0x0 }
  - { offsetInCU: 0x69C3, offset: 0x313AD, size: 0x8, addend: 0x0, symName: _glad_glVertexAttrib4ubv, symObjAddr: 0x25930, symBinAddr: 0x1000210E0, symSize: 0x0 }
  - { offsetInCU: 0x69E6, offset: 0x313D0, size: 0x8, addend: 0x0, symName: _glad_glVertexAttrib4uiv, symObjAddr: 0x25938, symBinAddr: 0x1000210E8, symSize: 0x0 }
  - { offsetInCU: 0x6A09, offset: 0x313F3, size: 0x8, addend: 0x0, symName: _glad_glVertexAttrib4usv, symObjAddr: 0x25940, symBinAddr: 0x1000210F0, symSize: 0x0 }
  - { offsetInCU: 0x6A2C, offset: 0x31416, size: 0x8, addend: 0x0, symName: _glad_glVertexAttribBinding, symObjAddr: 0x25948, symBinAddr: 0x1000210F8, symSize: 0x0 }
  - { offsetInCU: 0x6A4F, offset: 0x31439, size: 0x8, addend: 0x0, symName: _glad_glVertexAttribDivisor, symObjAddr: 0x25950, symBinAddr: 0x100021100, symSize: 0x0 }
  - { offsetInCU: 0x6A72, offset: 0x3145C, size: 0x8, addend: 0x0, symName: _glad_glVertexAttribFormat, symObjAddr: 0x25958, symBinAddr: 0x100021108, symSize: 0x0 }
  - { offsetInCU: 0x6AB6, offset: 0x314A0, size: 0x8, addend: 0x0, symName: _glad_glVertexAttribI1i, symObjAddr: 0x25960, symBinAddr: 0x100021110, symSize: 0x0 }
  - { offsetInCU: 0x6AD9, offset: 0x314C3, size: 0x8, addend: 0x0, symName: _glad_glVertexAttribI1iv, symObjAddr: 0x25968, symBinAddr: 0x100021118, symSize: 0x0 }
  - { offsetInCU: 0x6AFC, offset: 0x314E6, size: 0x8, addend: 0x0, symName: _glad_glVertexAttribI1ui, symObjAddr: 0x25970, symBinAddr: 0x100021120, symSize: 0x0 }
  - { offsetInCU: 0x6B1F, offset: 0x31509, size: 0x8, addend: 0x0, symName: _glad_glVertexAttribI1uiv, symObjAddr: 0x25978, symBinAddr: 0x100021128, symSize: 0x0 }
  - { offsetInCU: 0x6B42, offset: 0x3152C, size: 0x8, addend: 0x0, symName: _glad_glVertexAttribI2i, symObjAddr: 0x25980, symBinAddr: 0x100021130, symSize: 0x0 }
  - { offsetInCU: 0x6B65, offset: 0x3154F, size: 0x8, addend: 0x0, symName: _glad_glVertexAttribI2iv, symObjAddr: 0x25988, symBinAddr: 0x100021138, symSize: 0x0 }
  - { offsetInCU: 0x6B88, offset: 0x31572, size: 0x8, addend: 0x0, symName: _glad_glVertexAttribI2ui, symObjAddr: 0x25990, symBinAddr: 0x100021140, symSize: 0x0 }
  - { offsetInCU: 0x6BAB, offset: 0x31595, size: 0x8, addend: 0x0, symName: _glad_glVertexAttribI2uiv, symObjAddr: 0x25998, symBinAddr: 0x100021148, symSize: 0x0 }
  - { offsetInCU: 0x6BCE, offset: 0x315B8, size: 0x8, addend: 0x0, symName: _glad_glVertexAttribI3i, symObjAddr: 0x259A0, symBinAddr: 0x100021150, symSize: 0x0 }
  - { offsetInCU: 0x6BF1, offset: 0x315DB, size: 0x8, addend: 0x0, symName: _glad_glVertexAttribI3iv, symObjAddr: 0x259A8, symBinAddr: 0x100021158, symSize: 0x0 }
  - { offsetInCU: 0x6C14, offset: 0x315FE, size: 0x8, addend: 0x0, symName: _glad_glVertexAttribI3ui, symObjAddr: 0x259B0, symBinAddr: 0x100021160, symSize: 0x0 }
  - { offsetInCU: 0x6C53, offset: 0x3163D, size: 0x8, addend: 0x0, symName: _glad_glVertexAttribI3uiv, symObjAddr: 0x259B8, symBinAddr: 0x100021168, symSize: 0x0 }
  - { offsetInCU: 0x6C76, offset: 0x31660, size: 0x8, addend: 0x0, symName: _glad_glVertexAttribI4bv, symObjAddr: 0x259C0, symBinAddr: 0x100021170, symSize: 0x0 }
  - { offsetInCU: 0x6C99, offset: 0x31683, size: 0x8, addend: 0x0, symName: _glad_glVertexAttribI4i, symObjAddr: 0x259C8, symBinAddr: 0x100021178, symSize: 0x0 }
  - { offsetInCU: 0x6CBC, offset: 0x316A6, size: 0x8, addend: 0x0, symName: _glad_glVertexAttribI4iv, symObjAddr: 0x259D0, symBinAddr: 0x100021180, symSize: 0x0 }
  - { offsetInCU: 0x6CDF, offset: 0x316C9, size: 0x8, addend: 0x0, symName: _glad_glVertexAttribI4sv, symObjAddr: 0x259D8, symBinAddr: 0x100021188, symSize: 0x0 }
  - { offsetInCU: 0x6D02, offset: 0x316EC, size: 0x8, addend: 0x0, symName: _glad_glVertexAttribI4ubv, symObjAddr: 0x259E0, symBinAddr: 0x100021190, symSize: 0x0 }
  - { offsetInCU: 0x6D25, offset: 0x3170F, size: 0x8, addend: 0x0, symName: _glad_glVertexAttribI4ui, symObjAddr: 0x259E8, symBinAddr: 0x100021198, symSize: 0x0 }
  - { offsetInCU: 0x6D69, offset: 0x31753, size: 0x8, addend: 0x0, symName: _glad_glVertexAttribI4uiv, symObjAddr: 0x259F0, symBinAddr: 0x1000211A0, symSize: 0x0 }
  - { offsetInCU: 0x6D8C, offset: 0x31776, size: 0x8, addend: 0x0, symName: _glad_glVertexAttribI4usv, symObjAddr: 0x259F8, symBinAddr: 0x1000211A8, symSize: 0x0 }
  - { offsetInCU: 0x6DAF, offset: 0x31799, size: 0x8, addend: 0x0, symName: _glad_glVertexAttribIFormat, symObjAddr: 0x25A00, symBinAddr: 0x1000211B0, symSize: 0x0 }
  - { offsetInCU: 0x6DEE, offset: 0x317D8, size: 0x8, addend: 0x0, symName: _glad_glVertexAttribIPointer, symObjAddr: 0x25A08, symBinAddr: 0x1000211B8, symSize: 0x0 }
  - { offsetInCU: 0x6E32, offset: 0x3181C, size: 0x8, addend: 0x0, symName: _glad_glVertexAttribL1d, symObjAddr: 0x25A10, symBinAddr: 0x1000211C0, symSize: 0x0 }
  - { offsetInCU: 0x6E55, offset: 0x3183F, size: 0x8, addend: 0x0, symName: _glad_glVertexAttribL1dv, symObjAddr: 0x25A18, symBinAddr: 0x1000211C8, symSize: 0x0 }
  - { offsetInCU: 0x6E78, offset: 0x31862, size: 0x8, addend: 0x0, symName: _glad_glVertexAttribL2d, symObjAddr: 0x25A20, symBinAddr: 0x1000211D0, symSize: 0x0 }
  - { offsetInCU: 0x6E9B, offset: 0x31885, size: 0x8, addend: 0x0, symName: _glad_glVertexAttribL2dv, symObjAddr: 0x25A28, symBinAddr: 0x1000211D8, symSize: 0x0 }
  - { offsetInCU: 0x6EBE, offset: 0x318A8, size: 0x8, addend: 0x0, symName: _glad_glVertexAttribL3d, symObjAddr: 0x25A30, symBinAddr: 0x1000211E0, symSize: 0x0 }
  - { offsetInCU: 0x6EE1, offset: 0x318CB, size: 0x8, addend: 0x0, symName: _glad_glVertexAttribL3dv, symObjAddr: 0x25A38, symBinAddr: 0x1000211E8, symSize: 0x0 }
  - { offsetInCU: 0x6F04, offset: 0x318EE, size: 0x8, addend: 0x0, symName: _glad_glVertexAttribL4d, symObjAddr: 0x25A40, symBinAddr: 0x1000211F0, symSize: 0x0 }
  - { offsetInCU: 0x6F27, offset: 0x31911, size: 0x8, addend: 0x0, symName: _glad_glVertexAttribL4dv, symObjAddr: 0x25A48, symBinAddr: 0x1000211F8, symSize: 0x0 }
  - { offsetInCU: 0x6F4A, offset: 0x31934, size: 0x8, addend: 0x0, symName: _glad_glVertexAttribLFormat, symObjAddr: 0x25A50, symBinAddr: 0x100021200, symSize: 0x0 }
  - { offsetInCU: 0x6F6D, offset: 0x31957, size: 0x8, addend: 0x0, symName: _glad_glVertexAttribLPointer, symObjAddr: 0x25A58, symBinAddr: 0x100021208, symSize: 0x0 }
  - { offsetInCU: 0x6F90, offset: 0x3197A, size: 0x8, addend: 0x0, symName: _glad_glVertexAttribP1ui, symObjAddr: 0x25A60, symBinAddr: 0x100021210, symSize: 0x0 }
  - { offsetInCU: 0x6FCF, offset: 0x319B9, size: 0x8, addend: 0x0, symName: _glad_glVertexAttribP1uiv, symObjAddr: 0x25A68, symBinAddr: 0x100021218, symSize: 0x0 }
  - { offsetInCU: 0x700E, offset: 0x319F8, size: 0x8, addend: 0x0, symName: _glad_glVertexAttribP2ui, symObjAddr: 0x25A70, symBinAddr: 0x100021220, symSize: 0x0 }
  - { offsetInCU: 0x7031, offset: 0x31A1B, size: 0x8, addend: 0x0, symName: _glad_glVertexAttribP2uiv, symObjAddr: 0x25A78, symBinAddr: 0x100021228, symSize: 0x0 }
  - { offsetInCU: 0x7054, offset: 0x31A3E, size: 0x8, addend: 0x0, symName: _glad_glVertexAttribP3ui, symObjAddr: 0x25A80, symBinAddr: 0x100021230, symSize: 0x0 }
  - { offsetInCU: 0x7077, offset: 0x31A61, size: 0x8, addend: 0x0, symName: _glad_glVertexAttribP3uiv, symObjAddr: 0x25A88, symBinAddr: 0x100021238, symSize: 0x0 }
  - { offsetInCU: 0x709A, offset: 0x31A84, size: 0x8, addend: 0x0, symName: _glad_glVertexAttribP4ui, symObjAddr: 0x25A90, symBinAddr: 0x100021240, symSize: 0x0 }
  - { offsetInCU: 0x70BD, offset: 0x31AA7, size: 0x8, addend: 0x0, symName: _glad_glVertexAttribP4uiv, symObjAddr: 0x25A98, symBinAddr: 0x100021248, symSize: 0x0 }
  - { offsetInCU: 0x70E0, offset: 0x31ACA, size: 0x8, addend: 0x0, symName: _glad_glVertexAttribPointer, symObjAddr: 0x25AA0, symBinAddr: 0x100021250, symSize: 0x0 }
  - { offsetInCU: 0x7129, offset: 0x31B13, size: 0x8, addend: 0x0, symName: _glad_glVertexBindingDivisor, symObjAddr: 0x25AA8, symBinAddr: 0x100021258, symSize: 0x0 }
  - { offsetInCU: 0x714C, offset: 0x31B36, size: 0x8, addend: 0x0, symName: _glad_glVertexP2ui, symObjAddr: 0x25AB0, symBinAddr: 0x100021260, symSize: 0x0 }
  - { offsetInCU: 0x716F, offset: 0x31B59, size: 0x8, addend: 0x0, symName: _glad_glVertexP2uiv, symObjAddr: 0x25AB8, symBinAddr: 0x100021268, symSize: 0x0 }
  - { offsetInCU: 0x7192, offset: 0x31B7C, size: 0x8, addend: 0x0, symName: _glad_glVertexP3ui, symObjAddr: 0x25AC0, symBinAddr: 0x100021270, symSize: 0x0 }
  - { offsetInCU: 0x71B5, offset: 0x31B9F, size: 0x8, addend: 0x0, symName: _glad_glVertexP3uiv, symObjAddr: 0x25AC8, symBinAddr: 0x100021278, symSize: 0x0 }
  - { offsetInCU: 0x71D8, offset: 0x31BC2, size: 0x8, addend: 0x0, symName: _glad_glVertexP4ui, symObjAddr: 0x25AD0, symBinAddr: 0x100021280, symSize: 0x0 }
  - { offsetInCU: 0x71FB, offset: 0x31BE5, size: 0x8, addend: 0x0, symName: _glad_glVertexP4uiv, symObjAddr: 0x25AD8, symBinAddr: 0x100021288, symSize: 0x0 }
  - { offsetInCU: 0x721E, offset: 0x31C08, size: 0x8, addend: 0x0, symName: _glad_glViewport, symObjAddr: 0x25AE0, symBinAddr: 0x100021290, symSize: 0x0 }
  - { offsetInCU: 0x7241, offset: 0x31C2B, size: 0x8, addend: 0x0, symName: _glad_glViewportArrayv, symObjAddr: 0x25AE8, symBinAddr: 0x100021298, symSize: 0x0 }
  - { offsetInCU: 0x727B, offset: 0x31C65, size: 0x8, addend: 0x0, symName: _glad_glViewportIndexedf, symObjAddr: 0x25AF0, symBinAddr: 0x1000212A0, symSize: 0x0 }
  - { offsetInCU: 0x729E, offset: 0x31C88, size: 0x8, addend: 0x0, symName: _glad_glViewportIndexedfv, symObjAddr: 0x25AF8, symBinAddr: 0x1000212A8, symSize: 0x0 }
  - { offsetInCU: 0x72C1, offset: 0x31CAB, size: 0x8, addend: 0x0, symName: _glad_glWaitSync, symObjAddr: 0x25B00, symBinAddr: 0x1000212B0, symSize: 0x0 }
  - { offsetInCU: 0x72FA, offset: 0x31CE4, size: 0x8, addend: 0x0, symName: __ZL7open_glv, symObjAddr: 0x4C, symBinAddr: 0x100012850, symSize: 0x9C }
  - { offsetInCU: 0x7324, offset: 0x31D0E, size: 0x8, addend: 0x0, symName: __ZZL7open_glvE5NAMES, symObjAddr: 0x74C8, symBinAddr: 0x100020028, symSize: 0x0 }
  - { offsetInCU: 0x735C, offset: 0x31D46, size: 0x8, addend: 0x0, symName: __ZL5libGL, symObjAddr: 0x25B08, symBinAddr: 0x1000212C0, symSize: 0x0 }
  - { offsetInCU: 0x7376, offset: 0x31D60, size: 0x8, addend: 0x0, symName: __ZL16max_loaded_major, symObjAddr: 0x25B10, symBinAddr: 0x1000212C8, symSize: 0x0 }
  - { offsetInCU: 0x7390, offset: 0x31D7A, size: 0x8, addend: 0x0, symName: __ZL16max_loaded_minor, symObjAddr: 0x25B14, symBinAddr: 0x1000212CC, symSize: 0x0 }
  - { offsetInCU: 0x73AA, offset: 0x31D94, size: 0x8, addend: 0x0, symName: __ZL4exts, symObjAddr: 0x25B18, symBinAddr: 0x1000212D0, symSize: 0x0 }
  - { offsetInCU: 0x73C4, offset: 0x31DAE, size: 0x8, addend: 0x0, symName: __ZL10num_exts_i, symObjAddr: 0x25B20, symBinAddr: 0x1000212D8, symSize: 0x0 }
  - { offsetInCU: 0x73DE, offset: 0x31DC8, size: 0x8, addend: 0x0, symName: __ZL6exts_i, symObjAddr: 0x25B28, symBinAddr: 0x1000212E0, symSize: 0x0 }
  - { offsetInCU: 0x7413, offset: 0x31DFD, size: 0x8, addend: 0x0, symName: _gladLoadGL, symObjAddr: 0x0, symBinAddr: 0x100012804, symSize: 0x4C }
  - { offsetInCU: 0x743C, offset: 0x31E26, size: 0x8, addend: 0x0, symName: _gladLoadGLLoader, symObjAddr: 0xE8, symBinAddr: 0x1000128EC, symSize: 0x184 }
  - { offsetInCU: 0x7466, offset: 0x31E50, size: 0x8, addend: 0x0, symName: __ZL8get_procPKc, symObjAddr: 0x26C, symBinAddr: 0x100012A70, symSize: 0x7C }
  - { offsetInCU: 0x74A1, offset: 0x31E8B, size: 0x8, addend: 0x0, symName: __ZL8close_glv, symObjAddr: 0x2E8, symBinAddr: 0x100012AEC, symSize: 0x4C }
  - { offsetInCU: 0x74BB, offset: 0x31EA5, size: 0x8, addend: 0x0, symName: __ZL11find_coreGLv, symObjAddr: 0x334, symBinAddr: 0x100012B38, symSize: 0x770 }
  - { offsetInCU: 0x7541, offset: 0x31F2B, size: 0x8, addend: 0x0, symName: __ZL19load_GL_VERSION_1_0PFPvPKcE, symObjAddr: 0xAA4, symBinAddr: 0x1000132A8, symSize: 0x4BC }
  - { offsetInCU: 0x756C, offset: 0x31F56, size: 0x8, addend: 0x0, symName: __ZL19load_GL_VERSION_1_1PFPvPKcE, symObjAddr: 0xF60, symBinAddr: 0x100013764, symSize: 0x174 }
  - { offsetInCU: 0x7597, offset: 0x31F81, size: 0x8, addend: 0x0, symName: __ZL19load_GL_VERSION_1_2PFPvPKcE, symObjAddr: 0x10D4, symBinAddr: 0x1000138D8, symSize: 0x9C }
  - { offsetInCU: 0x75C2, offset: 0x31FAC, size: 0x8, addend: 0x0, symName: __ZL19load_GL_VERSION_1_3PFPvPKcE, symObjAddr: 0x1170, symBinAddr: 0x100013974, symSize: 0x114 }
  - { offsetInCU: 0x75ED, offset: 0x31FD7, size: 0x8, addend: 0x0, symName: __ZL19load_GL_VERSION_1_4PFPvPKcE, symObjAddr: 0x1284, symBinAddr: 0x100013A88, symSize: 0x114 }
  - { offsetInCU: 0x7618, offset: 0x32002, size: 0x8, addend: 0x0, symName: __ZL19load_GL_VERSION_1_5PFPvPKcE, symObjAddr: 0x1398, symBinAddr: 0x100013B9C, symSize: 0x204 }
  - { offsetInCU: 0x7643, offset: 0x3202D, size: 0x8, addend: 0x0, symName: __ZL19load_GL_VERSION_2_0PFPvPKcE, symObjAddr: 0x159C, symBinAddr: 0x100013DA0, symSize: 0x8F4 }
  - { offsetInCU: 0x766E, offset: 0x32058, size: 0x8, addend: 0x0, symName: __ZL19load_GL_VERSION_2_1PFPvPKcE, symObjAddr: 0x1E90, symBinAddr: 0x100014694, symSize: 0xCC }
  - { offsetInCU: 0x7699, offset: 0x32083, size: 0x8, addend: 0x0, symName: __ZL19load_GL_VERSION_3_0PFPvPKcE, symObjAddr: 0x1F5C, symBinAddr: 0x100014760, symSize: 0x81C }
  - { offsetInCU: 0x76C4, offset: 0x320AE, size: 0x8, addend: 0x0, symName: __ZL19load_GL_VERSION_3_1PFPvPKcE, symObjAddr: 0x2778, symBinAddr: 0x100014F7C, symSize: 0x1A4 }
  - { offsetInCU: 0x76EF, offset: 0x320D9, size: 0x8, addend: 0x0, symName: __ZL19load_GL_VERSION_3_2PFPvPKcE, symObjAddr: 0x291C, symBinAddr: 0x100015120, symSize: 0x204 }
  - { offsetInCU: 0x771A, offset: 0x32104, size: 0x8, addend: 0x0, symName: __ZL19load_GL_VERSION_3_3PFPvPKcE, symObjAddr: 0x2B20, symBinAddr: 0x100015324, symSize: 0x5AC }
  - { offsetInCU: 0x7745, offset: 0x3212F, size: 0x8, addend: 0x0, symName: __ZL19load_GL_VERSION_4_0PFPvPKcE, symObjAddr: 0x30CC, symBinAddr: 0x1000158D0, symSize: 0x48C }
  - { offsetInCU: 0x7770, offset: 0x3215A, size: 0x8, addend: 0x0, symName: __ZL19load_GL_VERSION_4_1PFPvPKcE, symObjAddr: 0x3558, symBinAddr: 0x100015D5C, symSize: 0x89C }
  - { offsetInCU: 0x779B, offset: 0x32185, size: 0x8, addend: 0x0, symName: __ZL19load_GL_VERSION_4_2PFPvPKcE, symObjAddr: 0x3DF4, symBinAddr: 0x1000165F8, symSize: 0x15C }
  - { offsetInCU: 0x77C6, offset: 0x321B0, size: 0x8, addend: 0x0, symName: __ZL19load_GL_VERSION_4_3PFPvPKcE, symObjAddr: 0x3F50, symBinAddr: 0x100016754, symSize: 0x45C }
  - { offsetInCU: 0x77F1, offset: 0x321DB, size: 0x8, addend: 0x0, symName: __ZL19load_GL_VERSION_4_4PFPvPKcE, symObjAddr: 0x43AC, symBinAddr: 0x100016BB0, symSize: 0x114 }
  - { offsetInCU: 0x781C, offset: 0x32206, size: 0x8, addend: 0x0, symName: __ZL17find_extensionsGLv, symObjAddr: 0x44C0, symBinAddr: 0x100016CC4, symSize: 0x48 }
  - { offsetInCU: 0x783B, offset: 0x32225, size: 0x8, addend: 0x0, symName: __ZL8get_extsv, symObjAddr: 0x4508, symBinAddr: 0x100016D0C, symSize: 0x18C }
  - { offsetInCU: 0x78AE, offset: 0x32298, size: 0x8, addend: 0x0, symName: __ZL7has_extPKc, symObjAddr: 0x4694, symBinAddr: 0x100016E98, symSize: 0x1F4 }
  - { offsetInCU: 0x794B, offset: 0x32335, size: 0x8, addend: 0x0, symName: __ZL9free_extsv, symObjAddr: 0x4888, symBinAddr: 0x10001708C, symSize: 0x98 }
  - { offsetInCU: 0x7982, offset: 0x3236C, size: 0x8, addend: 0x0, symName: __Z6strstrB8ue170006Ua9enable_ifIXLb1EEEPKcS0_, symObjAddr: 0x4920, symBinAddr: 0x100017124, symSize: 0x2C }
...
